

Microchip MPLAB XC8 Assembler V2.32 build 20210201212658 
                                                                                               Mon Jan 31 10:50:18 2022

Microchip MPLAB XC8 C Compiler v2.32 (Free license) build 20210201212658 Og1 
     1                           	processor	18F47Q10
     2                           	fnconf	rparam,??,?,0
     3                           	pagewidth 120
     4                           	opt	flic
     5                           	psect	idataCOMRAM,global,class=CODE,delta=1,noexec
     6                           	psect	smallconst,global,reloc=2,class=SMALLCONST,delta=1,noexec
     7                           	psect	cinit,global,reloc=2,class=CODE,delta=1
     8                           	psect	bssCOMRAM,global,class=COMRAM,space=1,delta=1,lowdata,noexec
     9                           	psect	dataCOMRAM,global,class=COMRAM,space=1,delta=1,lowdata,noexec
    10                           	psect	cstackCOMRAM,global,class=COMRAM,space=1,delta=1,lowdata,noexec
    11                           	psect	text0,global,reloc=2,class=CODE,delta=1
    12                           	psect	text1,global,reloc=2,class=CODE,delta=1
    13                           	psect	text2,global,reloc=2,class=CODE,delta=1
    14                           	psect	text3,global,reloc=2,class=CODE,delta=1
    15                           	psect	text4,global,reloc=2,class=CODE,delta=1
    16                           	psect	text5,global,reloc=2,class=CODE,delta=1
    17                           	psect	text6,global,reloc=2,class=CODE,delta=1
    18                           	psect	text7,global,reloc=2,class=CODE,delta=1
    19                           	psect	text8,global,reloc=2,class=CODE,delta=1
    20                           	psect	text9,global,reloc=2,class=CODE,delta=1
    21                           	psect	text10,global,reloc=2,class=CODE,delta=1
    22                           	psect	text11,global,reloc=2,class=CODE,delta=1
    23                           	psect	text12,global,reloc=2,class=CODE,delta=1,inline
    24                           	psect	text13,global,reloc=2,class=CODE,delta=1
    25                           	psect	text14,global,reloc=2,class=CODE,delta=1
    26                           	psect	text15,global,reloc=2,class=CODE,delta=1
    27                           	psect	text16,global,reloc=2,class=CODE,delta=1
    28                           	psect	text17,global,reloc=2,class=CODE,delta=1
    29                           	psect	text18,global,reloc=2,class=CODE,delta=1
    30                           	psect	text19,global,reloc=2,class=CODE,delta=1
    31                           	psect	text20,global,reloc=2,class=CODE,delta=1
    32                           	psect	text21,global,reloc=2,class=CODE,delta=1
    33                           	psect	text22,global,reloc=2,class=CODE,delta=1
    34                           	psect	text23,global,reloc=2,class=CODE,delta=1
    35                           	psect	text24,global,reloc=2,class=CODE,delta=1
    36                           	psect	text25,global,reloc=2,class=CODE,delta=1
    37                           	psect	text26,global,reloc=2,class=CODE,delta=1
    38                           	psect	text27,global,reloc=2,class=CODE,delta=1
    39                           	psect	text28,global,reloc=2,class=CODE,delta=1
    40                           	psect	text29,global,reloc=2,class=CODE,delta=1,inline
    41                           	psect	text30,global,reloc=2,class=CODE,delta=1
    42                           	psect	text31,global,reloc=2,class=CODE,delta=1,inline
    43                           	psect	text32,global,reloc=2,class=CODE,delta=1,inline
    44                           	psect	text33,global,reloc=2,class=CODE,delta=1,inline
    45                           	psect	text34,global,reloc=2,class=CODE,delta=1
    46                           	psect	text35,global,reloc=2,class=CODE,delta=1
    47                           	psect	text36,global,reloc=2,class=CODE,delta=1,inline
    48                           	psect	text37,global,reloc=2,class=CODE,delta=1,inline
    49                           	psect	text38,global,reloc=2,class=CODE,delta=1
    50                           	psect	text39,global,reloc=2,class=CODE,delta=1,inline
    51                           	psect	text40,global,reloc=2,class=CODE,delta=1,inline
    52                           	psect	text41,global,reloc=2,class=CODE,delta=1,inline
    53                           	psect	text42,global,reloc=2,class=CODE,delta=1,inline
    54                           	psect	text43,global,reloc=2,class=CODE,delta=1
    55                           	psect	text44,global,reloc=2,class=CODE,delta=1
    56                           	psect	intsave_regs,global,class=BIGRAM,space=1,delta=1,noexec
    57                           	psect	text45,global,reloc=2,class=CODE,delta=1
    58                           	psect	rparam,global,class=COMRAM,space=1,delta=1,noexec
    59                           	psect	idloc,global,abs,ovrld,class=IDLOC,space=5,delta=1,noexec
    60                           	psect	config,global,abs,ovrld,class=CONFIG,space=4,delta=1,noexec
    61  0000                     
    62                           ; Version 2.35
    63                           ; Generated 04/06/2021 GMT
    64                           ; 
    65                           ; Copyright © 2021, Microchip Technology Inc. and its subsidiaries ("Microchip")
    66                           ; All rights reserved.
    67                           ; 
    68                           ; This software is developed by Microchip Technology Inc. and its subsidiaries ("Microch
      +                          ip").
    69                           ; 
    70                           ; Redistribution and use in source and binary forms, with or without modification, are
    71                           ; permitted provided that the following conditions are met:
    72                           ; 
    73                           ;     1. Redistributions of source code must retain the above copyright notice, this lis
      +                          t of
    74                           ;        conditions and the following disclaimer.
    75                           ; 
    76                           ;     2. Redistributions in binary form must reproduce the above copyright notice, this 
      +                          list
    77                           ;        of conditions and the following disclaimer in the documentation and/or other
    78                           ;        materials provided with the distribution. Publication is not required when
    79                           ;        this file is used in an embedded application.
    80                           ; 
    81                           ;     3. Microchip's name may not be used to endorse or promote products derived from th
      +                          is
    82                           ;        software without specific prior written permission.
    83                           ; 
    84                           ; THIS SOFTWARE IS PROVIDED BY MICROCHIP "AS IS" AND ANY EXPRESS OR IMPLIED WARRANTIES,
    85                           ; INCLUDING, BUT NOT LIMITED TO, THE IMPLIED WARRANTIES OF MERCHANTABILITY AND FITNESS F
      +                          OR
    86                           ; PURPOSE ARE DISCLAIMED.  IN NO EVENT SHALL MICROCHIP BE LIABLE FOR ANY DIRECT, INDIREC
      +                          T,
    87                           ; INCIDENTAL, SPECIAL, EXEMPLARY, OR CONSEQUENTIAL DAMAGES (INCLUDING BUT NOT LIMITED TO
    88                           ; PROCUREMENT OF SUBSTITUTE GOODS OR SERVICES; LOSS OF USE, DATA OR PROFITS; OR BUSINESS
    89                           ; INTERRUPTION) HOWSOEVER CAUSED AND ON ANY THEORY OF LIABILITY, WHETHER IN CONTRACT, ST
      +                          RICT
    90                           ; LIABILITY, OR TORT (INCLUDING NEGLIGENCE OR OTHERWISE) ARISING IN ANY WAY OUT OF THE U
      +                          SE OF
    91                           ; THIS SOFTWARE, EVEN IF ADVISED OF THE POSSIBILITY OF SUCH DAMAGE.
    92                           ; 
    93                           ; 
    94                           ; Code-generator required, PIC18F47Q10 Definitions
    95                           ; 
    96                           ; SFR Addresses
    97  0000                     
    98 ;; Function _I2C1_Deinitialize is unused but had its address taken
    99  0000                     
   100 ;; Function _I2C1_Read is unused but had its address taken
   101  0000                     
   102 ;; Function _I2C1_WriteRead is unused but had its address taken
   103  0000                     
   104 ;; Function _INT0_DefaultInterruptHandler is unused but had its address taken
   105  0000                     
   106 ;; Function _INT1_DefaultInterruptHandler is unused but had its address taken
   107  0000                     
   108 ;; Function _INT2_DefaultInterruptHandler is unused but had its address taken
   109  0000                     
   110                           	psect	idataCOMRAM
   111  0016DC                     __pidataCOMRAM:
   112                           	callstack 0
   113                           
   114                           ;initializer for _I2C
   115  0016DC  1C                 	db	low _i2c1_host_interface
   116  0016DD  0F                 	db	high _i2c1_host_interface
   117                           
   118                           	psect	smallconst
   119  000F00                     __psmallconst:
   120                           	callstack 0
   121  000F00  00                 	db	0
   122  000F01                     _i2c1_eventTable:
   123                           	callstack 0
   124  000F01  90                 	db	low _I2C1_EVENT_IDLE
   125  000F02  16                 	db	high _I2C1_EVENT_IDLE
   126  000F03  00                 	db	low (_I2C1_EVENT_IDLE shr (0+16))
   127  000F04  5A                 	db	low _I2C1_EVENT_SEND_RD_ADDR
   128  000F05  16                 	db	high _I2C1_EVENT_SEND_RD_ADDR
   129  000F06  00                 	db	low (_I2C1_EVENT_SEND_RD_ADDR shr (0+16))
   130  000F07  4E                 	db	low _I2C1_EVENT_SEND_WR_ADDR
   131  000F08  16                 	db	high _I2C1_EVENT_SEND_WR_ADDR
   132  000F09  00                 	db	low (_I2C1_EVENT_SEND_WR_ADDR shr (0+16))
   133  000F0A  86                 	db	low _I2C1_EVENT_TX
   134  000F0B  13                 	db	high _I2C1_EVENT_TX
   135  000F0C  00                 	db	low (_I2C1_EVENT_TX shr (0+16))
   136  000F0D  B2                 	db	low _I2C1_EVENT_RX
   137  000F0E  12                 	db	high _I2C1_EVENT_RX
   138  000F0F  00                 	db	low (_I2C1_EVENT_RX shr (0+16))
   139  000F10  86                 	db	low _I2C1_EVENT_NACK
   140  000F11  16                 	db	high _I2C1_EVENT_NACK
   141  000F12  00                 	db	low (_I2C1_EVENT_NACK shr (0+16))
   142  000F13  7C                 	db	low _I2C1_EVENT_ERROR
   143  000F14  16                 	db	high _I2C1_EVENT_ERROR
   144  000F15  00                 	db	low (_I2C1_EVENT_ERROR shr (0+16))
   145  000F16  42                 	db	low _I2C1_EVENT_STOP
   146  000F17  16                 	db	high _I2C1_EVENT_STOP
   147  000F18  00                 	db	low (_I2C1_EVENT_STOP shr (0+16))
   148  000F19  36                 	db	low _I2C1_EVENT_RESET
   149  000F1A  16                 	db	high _I2C1_EVENT_RESET
   150  000F1B  00                 	db	low (_I2C1_EVENT_RESET shr (0+16))
   151  000F1C                     __end_of_i2c1_eventTable:
   152                           	callstack 0
   153  000F1C                     _i2c1_host_interface:
   154                           	callstack 0
   155  000F1C  40                 	db	low _I2C1_Initialize
   156  000F1D  15                 	db	high _I2C1_Initialize
   157  000F1E  00                 	db	low (_I2C1_Initialize shr (0+16))
   158  000F1F  00                 	db	0
   159  000F20  00                 	db	0
   160  000F21  00                 	db	0
   161  000F22  E2                 	db	low _I2C1_Write
   162  000F23  13                 	db	high _I2C1_Write
   163  000F24  00                 	db	low (_I2C1_Write shr (0+16))
   164  000F25  00                 	db	0
   165  000F26  00                 	db	0
   166  000F27  00                 	db	0
   167  000F28  00                 	db	0
   168  000F29  00                 	db	0
   169  000F2A  00                 	db	0
   170  000F2B  00                 	db	0
   171  000F2C  00                 	db	0
   172  000F2D  00                 	db	0
   173  000F2E  66                 	db	low _I2C1_ErrorGet
   174  000F2F  16                 	db	high _I2C1_ErrorGet
   175  000F30  00                 	db	low (_I2C1_ErrorGet shr (0+16))
   176  000F31  16                 	db	low _I2C1_IsBusy
   177  000F32  15                 	db	high _I2C1_IsBusy
   178  000F33  00                 	db	low (_I2C1_IsBusy shr (0+16))
   179  000F34  68                 	db	low _I2C1_CallbackRegister
   180  000F35  15                 	db	high _I2C1_CallbackRegister
   181  000F36  00                 	db	low (_I2C1_CallbackRegister shr (0+16))
   182  000F37  80                 	db	low _I2C1_Tasks
   183  000F38  14                 	db	high _I2C1_Tasks
   184  000F39  00                 	db	low (_I2C1_Tasks shr (0+16))
   185  000F3A                     __end_of_i2c1_host_interface:
   186                           	callstack 0
   187  0000                     _RB2PPS	set	3820
   188  0000                     _SSP1DATPPS	set	3763
   189  0000                     _RB1PPS	set	3819
   190  0000                     _SSP1CLKPPS	set	3762
   191  0000                     _PIR0bits	set	3781
   192  0000                     _PIR3bits	set	3784
   193  0000                     _OSCTUNE	set	3800
   194  0000                     _OSCSTAT	set	3798
   195  0000                     _OSCFRQ	set	3801
   196  0000                     _OSCEN	set	3799
   197  0000                     _OSCCON3	set	3797
   198  0000                     _OSCCON2	set	3796
   199  0000                     _OSCCON1	set	3795
   200  0000                     _IOCEF	set	3874
   201  0000                     _IOCEN	set	3875
   202  0000                     _IOCEP	set	3876
   203  0000                     _IOCCF	set	3861
   204  0000                     _IOCCN	set	3862
   205  0000                     _IOCCP	set	3863
   206  0000                     _IOCBF	set	3853
   207  0000                     _IOCBN	set	3854
   208  0000                     _IOCBP	set	3855
   209  0000                     _IOCAF	set	3845
   210  0000                     _IOCAN	set	3846
   211  0000                     _IOCAP	set	3847
   212  0000                     _INLVLE	set	3877
   213  0000                     _INLVLD	set	3869
   214  0000                     _INLVLC	set	3864
   215  0000                     _INLVLB	set	3856
   216  0000                     _INLVLA	set	3848
   217  0000                     _SLRCONE	set	3878
   218  0000                     _SLRCOND	set	3870
   219  0000                     _SLRCONC	set	3865
   220  0000                     _SLRCONB	set	3857
   221  0000                     _SLRCONA	set	3849
   222  0000                     _ODCONE	set	3879
   223  0000                     _ODCOND	set	3871
   224  0000                     _ODCONC	set	3866
   225  0000                     _ODCONB	set	3858
   226  0000                     _ODCONA	set	3850
   227  0000                     _WPUE	set	3880
   228  0000                     _WPUD	set	3872
   229  0000                     _WPUC	set	3867
   230  0000                     _WPUB	set	3859
   231  0000                     _WPUA	set	3851
   232  0000                     _ANSELE	set	3881
   233  0000                     _ANSELD	set	3873
   234  0000                     _ANSELC	set	3868
   235  0000                     _ANSELB	set	3860
   236  0000                     _ANSELA	set	3852
   237  0000                     _TRISE	set	3979
   238  0000                     _TRISD	set	3978
   239  0000                     _TRISC	set	3977
   240  0000                     _TRISB	set	3976
   241  0000                     _TRISA	set	3975
   242  0000                     _LATE	set	3974
   243  0000                     _LATD	set	3973
   244  0000                     _LATC	set	3972
   245  0000                     _LATB	set	3971
   246  0000                     _LATA	set	3970
   247  0000                     _INTCONbits	set	4082
   248  0000                     _SSP1CON2bits	set	3990
   249  0000                     _SSP1BUF	set	3985
   250  0000                     _SSP1STATbits	set	3988
   251  0000                     _SSP1CON1bits	set	3989
   252  0000                     _SSP1ADD	set	3986
   253  0000                     _SSP1CON3	set	3991
   254  0000                     _SSP1CON2	set	3990
   255  0000                     _SSP1CON1	set	3989
   256  0000                     _SSP1STAT	set	3988
   257  000F3A  00                 	db	0	; dummy byte at the end
   258  0000                     
   259                           ; #config settings
   260                           
   261                           	psect	cinit
   262  0014EC                     __pcinit:
   263                           	callstack 0
   264  0014EC                     start_initialization:
   265                           	callstack 0
   266  0014EC                     __initialization:
   267                           	callstack 0
   268                           
   269                           ; Initialize objects allocated to COMRAM (2 bytes)
   270                           ; load TBLPTR registers with __pidataCOMRAM
   271  0014EC  0EDC               	movlw	low __pidataCOMRAM
   272  0014EE  6EF6               	movwf	tblptrl,c
   273  0014F0  0E16               	movlw	high __pidataCOMRAM
   274  0014F2  6EF7               	movwf	tblptrh,c
   275  0014F4  0E00               	movlw	low (__pidataCOMRAM shr (0+16))
   276  0014F6  6EF8               	movwf	tblptru,c
   277  0014F8  0009               	tblrd		*+	;fetch initializer
   278  0014FA  CFF5 F027          	movff	tablat,__pdataCOMRAM
   279  0014FE  0009               	tblrd		*+	;fetch initializer
   280  001500  CFF5 F028          	movff	tablat,__pdataCOMRAM+1
   281                           
   282                           ; Clear objects allocated to COMRAM (26 bytes)
   283  001504  EE00  F001         	lfsr	0,__pbssCOMRAM
   284  001508  0E1A               	movlw	26
   285  00150A                     clear_0:
   286  00150A  6AEE               	clrf	postinc0,c
   287  00150C  06E8               	decf	wreg,f,c
   288  00150E  E1FD               	bnz	clear_0
   289  001510                     end_of_initialization:
   290                           	callstack 0
   291  001510                     __end_of__initialization:
   292                           	callstack 0
   293  001510  0100               	movlb	0
   294  001512  EF9E  F007         	goto	_main	;jump to C main() function
   295                           
   296                           	psect	bssCOMRAM
   297  000001                     __pbssCOMRAM:
   298                           	callstack 0
   299  000001                     _i2c1Status:
   300                           	callstack 0
   301  000001                     	ds	14
   302  00000F                     _INT2_InterruptHandler:
   303                           	callstack 0
   304  00000F                     	ds	3
   305  000012                     _INT1_InterruptHandler:
   306                           	callstack 0
   307  000012                     	ds	3
   308  000015                     _INT0_InterruptHandler:
   309                           	callstack 0
   310  000015                     	ds	3
   311  000018                     _I2C1_Callback:
   312                           	callstack 0
   313  000018                     	ds	3
   314                           
   315                           	psect	dataCOMRAM
   316  000027                     __pdataCOMRAM:
   317                           	callstack 0
   318  000027                     _I2C:
   319                           	callstack 0
   320  000027                     	ds	2
   321                           
   322                           	psect	cstackCOMRAM
   323  00001B                     __pcstackCOMRAM:
   324                           	callstack 0
   325  00001B                     I2C1_ErrorGet@retErrorState:
   326                           	callstack 0
   327  00001B                     _I2C1_IsBusy$793:
   328                           	callstack 0
   329  00001B                     I2C1_EVENT_RX@retEventState:
   330                           	callstack 0
   331  00001B                     I2C1_EVENT_NACK@retEventState:
   332                           	callstack 0
   333  00001B                     I2C1_EVENT_ERROR@retEventState:
   334                           	callstack 0
   335  00001B                     I2C1_DataTransmit@data:
   336                           	callstack 0
   337  00001B                     I2C1_CallbackRegister@callbackHandler:
   338                           	callstack 0
   339  00001B                     INT0_SetInterruptHandler@InterruptHandler:
   340                           	callstack 0
   341  00001B                     INT1_SetInterruptHandler@InterruptHandler:
   342                           	callstack 0
   343  00001B                     INT2_SetInterruptHandler@InterruptHandler:
   344                           	callstack 0
   345                           
   346                           ; 3 bytes @ 0x0
   347  00001B                     	ds	1
   348  00001C                     I2C1_EVENT_TX@retEventState:
   349                           	callstack 0
   350  00001C                     I2C1_Write@address:
   351                           	callstack 0
   352                           
   353                           ; 2 bytes @ 0x1
   354  00001C                     	ds	1
   355  00001D                     
   356                           ; 1 bytes @ 0x2
   357  00001D                     	ds	1
   358  00001E                     I2C1_Write@data:
   359                           	callstack 0
   360                           
   361                           ; 2 bytes @ 0x3
   362  00001E                     	ds	2
   363  000020                     I2C1_Write@dataLength:
   364                           	callstack 0
   365                           
   366                           ; 2 bytes @ 0x5
   367  000020                     	ds	2
   368  000022                     I2C1_Write@retStatus:
   369                           	callstack 0
   370                           
   371                           ; 1 bytes @ 0x7
   372  000022                     	ds	1
   373  000023                     ??_main:
   374                           
   375                           ; 1 bytes @ 0x8
   376  000023                     	ds	2
   377  000025                     main@data:
   378                           	callstack 0
   379                           
   380                           ; 2 bytes @ 0xA
   381  000025                     	ds	2
   382                           
   383 ;;
   384 ;;Main: autosize = 0, tempsize = 2, incstack = 0, save=0
   385 ;;
   386 ;; *************** function _main *****************
   387 ;; Defined at:
   388 ;;		line 34 in file "main.c"
   389 ;; Parameters:    Size  Location     Type
   390 ;;		None
   391 ;; Auto vars:     Size  Location     Type
   392 ;;  data            2   10[COMRAM] unsigned char [2]
   393 ;; Return value:  Size  Location     Type
   394 ;;                  2  471[None  ] int 
   395 ;; Registers used:
   396 ;;		wreg, fsr2l, fsr2h, status,2, status,0, pclath, tosl, tblptrl, tblptrh, tblptru, prodl, prodh, cstack
   397 ;; Tracked objects:
   398 ;;		On entry : 0/0
   399 ;;		On exit  : 0/0
   400 ;;		Unchanged: 0/0
   401 ;; Data sizes:     COMRAM   BANK0   BANK1   BANK2   BANK3   BANK4   BANK5   BANK6   BANK7   BANK8   BANK9  BANK10  BANK1
      +1  BANK12  BANK13  BANK14
   402 ;;      Params:         0       0       0       0       0       0       0       0       0       0       0       0       
      +0       0       0       0
   403 ;;      Locals:         2       0       0       0       0       0       0       0       0       0       0       0       
      +0       0       0       0
   404 ;;      Temps:          2       0       0       0       0       0       0       0       0       0       0       0       
      +0       0       0       0
   405 ;;      Totals:         4       0       0       0       0       0       0       0       0       0       0       0       
      +0       0       0       0
   406 ;;Total ram usage:        4 bytes
   407 ;; Hardware stack levels required when called: 6
   408 ;; This function calls:
   409 ;;		_I2C1_ErrorGet
   410 ;;		_I2C1_IsBusy
   411 ;;		_I2C1_Tasks
   412 ;;		_I2C1_Write
   413 ;;		_SYSTEM_Initialize
   414 ;; This function is called by:
   415 ;;		Startup code after reset
   416 ;; This function uses a non-reentrant model
   417 ;;
   418                           
   419                           	psect	text0
   420  000F3C                     __ptext0:
   421                           	callstack 0
   422  000F3C                     _main:
   423                           	callstack 25
   424  000F3C                     
   425                           ;main.c: 37:     SYSTEM_Initialize();
   426  000F3C  ECFD  F00A         	call	_SYSTEM_Initialize	;wreg free
   427  000F40                     
   428                           ;main.c: 38:     _delay((unsigned long)((20)*(4000000/4000.0)));
   429  000F40  0E1A               	movlw	26
   430  000F42  6E23               	movwf	??_main^0,c
   431  000F44  0EF8               	movlw	248
   432  000F46                     u637:
   433  000F46  2EE8               	decfsz	wreg,f,c
   434  000F48  D7FE               	bra	u637
   435  000F4A  2E23               	decfsz	??_main^0,f,c
   436  000F4C  D7FC               	bra	u637
   437  000F4E  D000               	nop2	
   438  000F50                     
   439                           ;main.c: 39:     uint8_t data[2];;main.c: 42:     data[0] = 0x00;
   440  000F50  0E00               	movlw	0
   441  000F52  6E25               	movwf	main@data^0,c
   442  000F54                     
   443                           ;main.c: 43:     data[1] = 0x00;
   444  000F54  0E00               	movlw	0
   445  000F56  6E26               	movwf	(main@data+1)^0,c
   446  000F58                     
   447                           ;main.c: 44:     if (I2C->Write(0x20, data, 2))
   448  000F58  0E00               	movlw	0
   449  000F5A  6E1D               	movwf	(I2C1_Write@address+1)^0,c
   450  000F5C  0E20               	movlw	32
   451  000F5E  6E1C               	movwf	I2C1_Write@address^0,c
   452  000F60  0E25               	movlw	low main@data
   453  000F62  6E1E               	movwf	I2C1_Write@data^0,c
   454  000F64  0E00               	movlw	high main@data
   455  000F66  6E1F               	movwf	(I2C1_Write@data+1)^0,c
   456  000F68  0E00               	movlw	0
   457  000F6A  6E21               	movwf	(I2C1_Write@dataLength+1)^0,c
   458  000F6C  0E02               	movlw	2
   459  000F6E  6E20               	movwf	I2C1_Write@dataLength^0,c
   460  000F70  0E22               	movlw	low (_i2c1_host_interface+6)
   461  000F72  6EF6               	movwf	tblptrl,c
   462  000F74  0E0F               	movlw	high (_i2c1_host_interface+6)
   463  000F76  6EF7               	movwf	tblptrh,c
   464  000F78                     	if	0	;tblptru may be non-zero
   465  000F78                     	endif
   466  000F78                     	if	1	;Program memory is > 0xFFFF, there are 3 active tblptr bytes
   467  000F78  0E00               	movlw	low (__mediumconst shr (0+16))
   468  000F7A  6EF8               	movwf	tblptru,c
   469  000F7C                     	endif
   470  000F7C  D802               	call	u518
   471  000F7E  EFCE  F007         	goto	u519
   472  000F82                     u518:
   473  000F82  0005               	push	
   474  000F84  6EFA               	movwf	pclath,c
   475  000F86  0009               	tblrd		*+
   476  000F88  50F5               	movf	tablat,w,c
   477  000F8A  6EFD               	movwf	tosl,c
   478  000F8C  0009               	tblrd		*+
   479  000F8E  50F5               	movf	tablat,w,c
   480  000F90  6EFE               	movwf	tosh,c
   481  000F92  0009               	tblrd		*+
   482  000F94  50F5               	movf	tablat,w,c
   483  000F96  6EFF               	movwf	tosu,c
   484  000F98  50FA               	movf	pclath,w,c
   485  000F9A  0012               	return		;indir
   486  000F9C                     u519:
   487  000F9C  0900               	iorlw	0
   488  000F9E  B4D8               	btfsc	status,2,c
   489  000FA0  EFD4  F007         	goto	u521
   490  000FA4  EFD6  F007         	goto	u520
   491  000FA8                     u521:
   492  000FA8  EF22  F008         	goto	l1707
   493  000FAC                     u520:
   494  000FAC  EFEE  F007         	goto	l1701
   495  000FB0                     l1699:
   496                           
   497                           ;main.c: 47:         {;main.c: 48:             I2C->Tasks();
   498  000FB0  0E37               	movlw	low (_i2c1_host_interface+27)
   499  000FB2  6EF6               	movwf	tblptrl,c
   500  000FB4  0E0F               	movlw	high (_i2c1_host_interface+27)
   501  000FB6  6EF7               	movwf	tblptrh,c
   502  000FB8                     	if	0	;tblptru may be non-zero
   503  000FB8                     	endif
   504  000FB8                     	if	1	;Program memory is > 0xFFFF, there are 3 active tblptr bytes
   505  000FB8  0E00               	movlw	low (__mediumconst shr (0+16))
   506  000FBA  6EF8               	movwf	tblptru,c
   507  000FBC                     	endif
   508  000FBC  D802               	call	u538
   509  000FBE  EFEE  F007         	goto	u539
   510  000FC2                     u538:
   511  000FC2  0005               	push	
   512  000FC4  6EFA               	movwf	pclath,c
   513  000FC6  0009               	tblrd		*+
   514  000FC8  50F5               	movf	tablat,w,c
   515  000FCA  6EFD               	movwf	tosl,c
   516  000FCC  0009               	tblrd		*+
   517  000FCE  50F5               	movf	tablat,w,c
   518  000FD0  6EFE               	movwf	tosh,c
   519  000FD2  0009               	tblrd		*+
   520  000FD4  50F5               	movf	tablat,w,c
   521  000FD6  6EFF               	movwf	tosu,c
   522  000FD8  50FA               	movf	pclath,w,c
   523  000FDA  0012               	return		;indir
   524  000FDC                     u539:
   525  000FDC                     l1701:
   526                           
   527                           ;main.c: 46:         while(I2C->IsBusy())
   528  000FDC  0E31               	movlw	low (_i2c1_host_interface+21)
   529  000FDE  6EF6               	movwf	tblptrl,c
   530  000FE0  0E0F               	movlw	high (_i2c1_host_interface+21)
   531  000FE2  6EF7               	movwf	tblptrh,c
   532  000FE4                     	if	0	;tblptru may be non-zero
   533  000FE4                     	endif
   534  000FE4                     	if	1	;Program memory is > 0xFFFF, there are 3 active tblptr bytes
   535  000FE4  0E00               	movlw	low (__mediumconst shr (0+16))
   536  000FE6  6EF8               	movwf	tblptru,c
   537  000FE8                     	endif
   538  000FE8  D802               	call	u548
   539  000FEA  EF04  F008         	goto	u549
   540  000FEE                     u548:
   541  000FEE  0005               	push	
   542  000FF0  6EFA               	movwf	pclath,c
   543  000FF2  0009               	tblrd		*+
   544  000FF4  50F5               	movf	tablat,w,c
   545  000FF6  6EFD               	movwf	tosl,c
   546  000FF8  0009               	tblrd		*+
   547  000FFA  50F5               	movf	tablat,w,c
   548  000FFC  6EFE               	movwf	tosh,c
   549  000FFE  0009               	tblrd		*+
   550  001000  50F5               	movf	tablat,w,c
   551  001002  6EFF               	movwf	tosu,c
   552  001004  50FA               	movf	pclath,w,c
   553  001006  0012               	return		;indir
   554  001008                     u549:
   555  001008  0900               	iorlw	0
   556  00100A  A4D8               	btfss	status,2,c
   557  00100C  EF0A  F008         	goto	u551
   558  001010  EF0C  F008         	goto	u550
   559  001014                     u551:
   560  001014  EFD8  F007         	goto	l1699
   561  001018                     u550:
   562  001018                     
   563                           ;main.c: 50:         if (I2C->ErrorGet() == I2C_ERROR_NONE)
   564  001018  0E2E               	movlw	low (_i2c1_host_interface+18)
   565  00101A  6EF6               	movwf	tblptrl,c
   566  00101C  0E0F               	movlw	high (_i2c1_host_interface+18)
   567  00101E  6EF7               	movwf	tblptrh,c
   568  001020                     	if	0	;tblptru may be non-zero
   569  001020                     	endif
   570  001020                     	if	1	;Program memory is > 0xFFFF, there are 3 active tblptr bytes
   571  001020  0E00               	movlw	low (__mediumconst shr (0+16))
   572  001022  6EF8               	movwf	tblptru,c
   573  001024                     	endif
   574  001024  D802               	call	u568
   575  001026  EF22  F008         	goto	u569
   576  00102A                     u568:
   577  00102A  0005               	push	
   578  00102C  6EFA               	movwf	pclath,c
   579  00102E  0009               	tblrd		*+
   580  001030  50F5               	movf	tablat,w,c
   581  001032  6EFD               	movwf	tosl,c
   582  001034  0009               	tblrd		*+
   583  001036  50F5               	movf	tablat,w,c
   584  001038  6EFE               	movwf	tosh,c
   585  00103A  0009               	tblrd		*+
   586  00103C  50F5               	movf	tablat,w,c
   587  00103E  6EFF               	movwf	tosu,c
   588  001040  50FA               	movf	pclath,w,c
   589  001042  0012               	return		;indir
   590  001044                     u569:
   591  001044                     l1707:
   592                           
   593                           ;main.c: 60:     data[0] = 0x09;
   594  001044  0E09               	movlw	9
   595  001046  6E25               	movwf	main@data^0,c
   596  001048                     
   597                           ;main.c: 61:     data[1] = 0xFF;
   598  001048  6826               	setf	(main@data+1)^0,c
   599  00104A                     l1711:
   600                           
   601                           ;main.c: 64:     {;main.c: 65:         if (I2C->Write(0x20, data, 2))
   602  00104A  0E00               	movlw	0
   603  00104C  6E1D               	movwf	(I2C1_Write@address+1)^0,c
   604  00104E  0E20               	movlw	32
   605  001050  6E1C               	movwf	I2C1_Write@address^0,c
   606  001052  0E25               	movlw	low main@data
   607  001054  6E1E               	movwf	I2C1_Write@data^0,c
   608  001056  0E00               	movlw	high main@data
   609  001058  6E1F               	movwf	(I2C1_Write@data+1)^0,c
   610  00105A  0E00               	movlw	0
   611  00105C  6E21               	movwf	(I2C1_Write@dataLength+1)^0,c
   612  00105E  0E02               	movlw	2
   613  001060  6E20               	movwf	I2C1_Write@dataLength^0,c
   614  001062  0E22               	movlw	low (_i2c1_host_interface+6)
   615  001064  6EF6               	movwf	tblptrl,c
   616  001066  0E0F               	movlw	high (_i2c1_host_interface+6)
   617  001068  6EF7               	movwf	tblptrh,c
   618  00106A                     	if	0	;tblptru may be non-zero
   619  00106A                     	endif
   620  00106A                     	if	1	;Program memory is > 0xFFFF, there are 3 active tblptr bytes
   621  00106A  0E00               	movlw	low (__mediumconst shr (0+16))
   622  00106C  6EF8               	movwf	tblptru,c
   623  00106E                     	endif
   624  00106E  D802               	call	u578
   625  001070  EF47  F008         	goto	u579
   626  001074                     u578:
   627  001074  0005               	push	
   628  001076  6EFA               	movwf	pclath,c
   629  001078  0009               	tblrd		*+
   630  00107A  50F5               	movf	tablat,w,c
   631  00107C  6EFD               	movwf	tosl,c
   632  00107E  0009               	tblrd		*+
   633  001080  50F5               	movf	tablat,w,c
   634  001082  6EFE               	movwf	tosh,c
   635  001084  0009               	tblrd		*+
   636  001086  50F5               	movf	tablat,w,c
   637  001088  6EFF               	movwf	tosu,c
   638  00108A  50FA               	movf	pclath,w,c
   639  00108C  0012               	return		;indir
   640  00108E                     u579:
   641  00108E  0900               	iorlw	0
   642  001090  B4D8               	btfsc	status,2,c
   643  001092  EF4D  F008         	goto	u581
   644  001096  EF4F  F008         	goto	u580
   645  00109A                     u581:
   646  00109A  EF9E  F008         	goto	l1725
   647  00109E                     u580:
   648  00109E  EF67  F008         	goto	l1717
   649  0010A2                     l1715:
   650                           
   651                           ;main.c: 68:             {;main.c: 69:                 I2C->Tasks();
   652  0010A2  0E37               	movlw	low (_i2c1_host_interface+27)
   653  0010A4  6EF6               	movwf	tblptrl,c
   654  0010A6  0E0F               	movlw	high (_i2c1_host_interface+27)
   655  0010A8  6EF7               	movwf	tblptrh,c
   656  0010AA                     	if	0	;tblptru may be non-zero
   657  0010AA                     	endif
   658  0010AA                     	if	1	;Program memory is > 0xFFFF, there are 3 active tblptr bytes
   659  0010AA  0E00               	movlw	low (__mediumconst shr (0+16))
   660  0010AC  6EF8               	movwf	tblptru,c
   661  0010AE                     	endif
   662  0010AE  D802               	call	u598
   663  0010B0  EF67  F008         	goto	u599
   664  0010B4                     u598:
   665  0010B4  0005               	push	
   666  0010B6  6EFA               	movwf	pclath,c
   667  0010B8  0009               	tblrd		*+
   668  0010BA  50F5               	movf	tablat,w,c
   669  0010BC  6EFD               	movwf	tosl,c
   670  0010BE  0009               	tblrd		*+
   671  0010C0  50F5               	movf	tablat,w,c
   672  0010C2  6EFE               	movwf	tosh,c
   673  0010C4  0009               	tblrd		*+
   674  0010C6  50F5               	movf	tablat,w,c
   675  0010C8  6EFF               	movwf	tosu,c
   676  0010CA  50FA               	movf	pclath,w,c
   677  0010CC  0012               	return		;indir
   678  0010CE                     u599:
   679  0010CE                     l1717:
   680                           
   681                           ;main.c: 67:             while(I2C->IsBusy())
   682  0010CE  0E31               	movlw	low (_i2c1_host_interface+21)
   683  0010D0  6EF6               	movwf	tblptrl,c
   684  0010D2  0E0F               	movlw	high (_i2c1_host_interface+21)
   685  0010D4  6EF7               	movwf	tblptrh,c
   686  0010D6                     	if	0	;tblptru may be non-zero
   687  0010D6                     	endif
   688  0010D6                     	if	1	;Program memory is > 0xFFFF, there are 3 active tblptr bytes
   689  0010D6  0E00               	movlw	low (__mediumconst shr (0+16))
   690  0010D8  6EF8               	movwf	tblptru,c
   691  0010DA                     	endif
   692  0010DA  D802               	call	u608
   693  0010DC  EF7D  F008         	goto	u609
   694  0010E0                     u608:
   695  0010E0  0005               	push	
   696  0010E2  6EFA               	movwf	pclath,c
   697  0010E4  0009               	tblrd		*+
   698  0010E6  50F5               	movf	tablat,w,c
   699  0010E8  6EFD               	movwf	tosl,c
   700  0010EA  0009               	tblrd		*+
   701  0010EC  50F5               	movf	tablat,w,c
   702  0010EE  6EFE               	movwf	tosh,c
   703  0010F0  0009               	tblrd		*+
   704  0010F2  50F5               	movf	tablat,w,c
   705  0010F4  6EFF               	movwf	tosu,c
   706  0010F6  50FA               	movf	pclath,w,c
   707  0010F8  0012               	return		;indir
   708  0010FA                     u609:
   709  0010FA  0900               	iorlw	0
   710  0010FC  A4D8               	btfss	status,2,c
   711  0010FE  EF83  F008         	goto	u611
   712  001102  EF85  F008         	goto	u610
   713  001106                     u611:
   714  001106  EF51  F008         	goto	l1715
   715  00110A                     u610:
   716  00110A                     
   717                           ;main.c: 71:             if (I2C->ErrorGet() == I2C_ERROR_NONE)
   718  00110A  0E2E               	movlw	low (_i2c1_host_interface+18)
   719  00110C  6EF6               	movwf	tblptrl,c
   720  00110E  0E0F               	movlw	high (_i2c1_host_interface+18)
   721  001110  6EF7               	movwf	tblptrh,c
   722  001112                     	if	0	;tblptru may be non-zero
   723  001112                     	endif
   724  001112                     	if	1	;Program memory is > 0xFFFF, there are 3 active tblptr bytes
   725  001112  0E00               	movlw	low (__mediumconst shr (0+16))
   726  001114  6EF8               	movwf	tblptru,c
   727  001116                     	endif
   728  001116  D802               	call	u628
   729  001118  EF9B  F008         	goto	u629
   730  00111C                     u628:
   731  00111C  0005               	push	
   732  00111E  6EFA               	movwf	pclath,c
   733  001120  0009               	tblrd		*+
   734  001122  50F5               	movf	tablat,w,c
   735  001124  6EFD               	movwf	tosl,c
   736  001126  0009               	tblrd		*+
   737  001128  50F5               	movf	tablat,w,c
   738  00112A  6EFE               	movwf	tosh,c
   739  00112C  0009               	tblrd		*+
   740  00112E  50F5               	movf	tablat,w,c
   741  001130  6EFF               	movwf	tosu,c
   742  001132  50FA               	movf	pclath,w,c
   743  001134  0012               	return		;indir
   744  001136                     u629:
   745  001136                     
   746                           ;main.c: 81:             data[1] = ~data[1];
   747  001136  5026               	movf	(main@data+1)^0,w,c
   748  001138  0AFF               	xorlw	255
   749  00113A  6E26               	movwf	(main@data+1)^0,c
   750  00113C                     l1725:
   751                           
   752                           ;main.c: 84:          _delay((unsigned long)((1000)*(4000000/4000.0)));
   753  00113C  0E06               	movlw	6
   754  00113E  6E24               	movwf	(??_main+1)^0,c
   755  001140  0E13               	movlw	19
   756  001142  6E23               	movwf	??_main^0,c
   757  001144  0EAE               	movlw	174
   758  001146                     u647:
   759  001146  2EE8               	decfsz	wreg,f,c
   760  001148  D7FE               	bra	u647
   761  00114A  2E23               	decfsz	??_main^0,f,c
   762  00114C  D7FC               	bra	u647
   763  00114E  2E24               	decfsz	(??_main+1)^0,f,c
   764  001150  D7FA               	bra	u647
   765  001152  EF25  F008         	goto	l1711
   766  001156  EF00  F000         	goto	start
   767  00115A                     __end_of_main:
   768                           	callstack 0
   769                           
   770 ;; *************** function _SYSTEM_Initialize *****************
   771 ;; Defined at:
   772 ;;		line 49 in file "mcc_generated_files/system/src/system.c"
   773 ;; Parameters:    Size  Location     Type
   774 ;;		None
   775 ;; Auto vars:     Size  Location     Type
   776 ;;		None
   777 ;; Return value:  Size  Location     Type
   778 ;;                  1    wreg      void 
   779 ;; Registers used:
   780 ;;		wreg, status,2, status,0, cstack
   781 ;; Tracked objects:
   782 ;;		On entry : 0/0
   783 ;;		On exit  : 0/0
   784 ;;		Unchanged: 0/0
   785 ;; Data sizes:     COMRAM   BANK0   BANK1   BANK2   BANK3   BANK4   BANK5   BANK6   BANK7   BANK8   BANK9  BANK10  BANK1
      +1  BANK12  BANK13  BANK14
   786 ;;      Params:         0       0       0       0       0       0       0       0       0       0       0       0       
      +0       0       0       0
   787 ;;      Locals:         0       0       0       0       0       0       0       0       0       0       0       0       
      +0       0       0       0
   788 ;;      Temps:          0       0       0       0       0       0       0       0       0       0       0       0       
      +0       0       0       0
   789 ;;      Totals:         0       0       0       0       0       0       0       0       0       0       0       0       
      +0       0       0       0
   790 ;;Total ram usage:        0 bytes
   791 ;; Hardware stack levels used: 1
   792 ;; Hardware stack levels required when called: 2
   793 ;; This function calls:
   794 ;;		_CLOCK_Initialize
   795 ;;		_I2C1_Initialize
   796 ;;		_INTERRUPT_Initialize
   797 ;;		_PIN_MANAGER_Initialize
   798 ;; This function is called by:
   799 ;;		_main
   800 ;; This function uses a non-reentrant model
   801 ;;
   802                           
   803                           	psect	text1
   804  0015FA                     __ptext1:
   805                           	callstack 0
   806  0015FA                     _SYSTEM_Initialize:
   807                           	callstack 28
   808  0015FA                     
   809                           ;mcc_generated_files/system/src/system.c: 51:     CLOCK_Initialize();
   810  0015FA  ECC5  F00A         	call	_CLOCK_Initialize	;wreg free
   811                           
   812                           ;mcc_generated_files/system/src/system.c: 52:     PIN_MANAGER_Initialize();
   813  0015FE  ECAD  F008         	call	_PIN_MANAGER_Initialize	;wreg free
   814  001602                     
   815                           ;mcc_generated_files/system/src/system.c: 53:     I2C1_Initialize();
   816  001602  ECA0  F00A         	call	_I2C1_Initialize	;wreg free
   817  001606                     
   818                           ;mcc_generated_files/system/src/system.c: 54:     INTERRUPT_Initialize();
   819  001606  EC1D  F00A         	call	_INTERRUPT_Initialize	;wreg free
   820  00160A  0012               	return		;funcret
   821  00160C                     __end_of_SYSTEM_Initialize:
   822                           	callstack 0
   823                           
   824 ;; *************** function _PIN_MANAGER_Initialize *****************
   825 ;; Defined at:
   826 ;;		line 47 in file "mcc_generated_files/system/src/pins.c"
   827 ;; Parameters:    Size  Location     Type
   828 ;;		None
   829 ;; Auto vars:     Size  Location     Type
   830 ;;		None
   831 ;; Return value:  Size  Location     Type
   832 ;;                  1    wreg      void 
   833 ;; Registers used:
   834 ;;		wreg, status,2
   835 ;; Tracked objects:
   836 ;;		On entry : 0/0
   837 ;;		On exit  : 0/0
   838 ;;		Unchanged: 0/0
   839 ;; Data sizes:     COMRAM   BANK0   BANK1   BANK2   BANK3   BANK4   BANK5   BANK6   BANK7   BANK8   BANK9  BANK10  BANK1
      +1  BANK12  BANK13  BANK14
   840 ;;      Params:         0       0       0       0       0       0       0       0       0       0       0       0       
      +0       0       0       0
   841 ;;      Locals:         0       0       0       0       0       0       0       0       0       0       0       0       
      +0       0       0       0
   842 ;;      Temps:          0       0       0       0       0       0       0       0       0       0       0       0       
      +0       0       0       0
   843 ;;      Totals:         0       0       0       0       0       0       0       0       0       0       0       0       
      +0       0       0       0
   844 ;;Total ram usage:        0 bytes
   845 ;; Hardware stack levels used: 1
   846 ;; This function calls:
   847 ;;		Nothing
   848 ;; This function is called by:
   849 ;;		_SYSTEM_Initialize
   850 ;; This function uses a non-reentrant model
   851 ;;
   852                           
   853                           	psect	text2
   854  00115A                     __ptext2:
   855                           	callstack 0
   856  00115A                     _PIN_MANAGER_Initialize:
   857                           	callstack 29
   858  00115A                     
   859                           ;mcc_generated_files/system/src/pins.c: 52:     LATA = 0x0;
   860  00115A  0E00               	movlw	0
   861  00115C  6E82               	movwf	130,c	;volatile
   862                           
   863                           ;mcc_generated_files/system/src/pins.c: 53:     LATB = 0x6;
   864  00115E  0E06               	movlw	6
   865  001160  6E83               	movwf	131,c	;volatile
   866                           
   867                           ;mcc_generated_files/system/src/pins.c: 54:     LATC = 0x0;
   868  001162  0E00               	movlw	0
   869  001164  6E84               	movwf	132,c	;volatile
   870                           
   871                           ;mcc_generated_files/system/src/pins.c: 55:     LATD = 0x0;
   872  001166  0E00               	movlw	0
   873  001168  6E85               	movwf	133,c	;volatile
   874                           
   875                           ;mcc_generated_files/system/src/pins.c: 56:     LATE = 0x0;
   876  00116A  0E00               	movlw	0
   877  00116C  6E86               	movwf	134,c	;volatile
   878  00116E                     
   879                           ;mcc_generated_files/system/src/pins.c: 61:     TRISA = 0xFF;
   880  00116E  6887               	setf	135,c	;volatile
   881  001170                     
   882                           ;mcc_generated_files/system/src/pins.c: 62:     TRISB = 0xFF;
   883  001170  6888               	setf	136,c	;volatile
   884  001172                     
   885                           ;mcc_generated_files/system/src/pins.c: 63:     TRISC = 0xFF;
   886  001172  6889               	setf	137,c	;volatile
   887  001174                     
   888                           ;mcc_generated_files/system/src/pins.c: 64:     TRISD = 0xFF;
   889  001174  688A               	setf	138,c	;volatile
   890                           
   891                           ;mcc_generated_files/system/src/pins.c: 65:     TRISE = 0x7;
   892  001176  0E07               	movlw	7
   893  001178  6E8B               	movwf	139,c	;volatile
   894  00117A                     
   895                           ;mcc_generated_files/system/src/pins.c: 70:     ANSELA = 0xFF;
   896  00117A  010F               	movlb	15	; () banked
   897  00117C  690C               	setf	12,b	;volatile
   898                           
   899                           ;mcc_generated_files/system/src/pins.c: 71:     ANSELB = 0xF9;
   900  00117E  0EF9               	movlw	249
   901  001180  6F14               	movwf	20,b	;volatile
   902  001182                     
   903                           ; BSR set to: 15
   904                           ;mcc_generated_files/system/src/pins.c: 72:     ANSELC = 0xFF;
   905  001182  691C               	setf	28,b	;volatile
   906  001184                     
   907                           ; BSR set to: 15
   908                           ;mcc_generated_files/system/src/pins.c: 73:     ANSELD = 0xFF;
   909  001184  6921               	setf	33,b	;volatile
   910                           
   911                           ;mcc_generated_files/system/src/pins.c: 74:     ANSELE = 0x7;
   912  001186  0E07               	movlw	7
   913  001188  6F29               	movwf	41,b	;volatile
   914                           
   915                           ;mcc_generated_files/system/src/pins.c: 79:     WPUA = 0x0;
   916  00118A  0E00               	movlw	0
   917  00118C  6F0B               	movwf	11,b	;volatile
   918                           
   919                           ;mcc_generated_files/system/src/pins.c: 80:     WPUB = 0x6;
   920  00118E  0E06               	movlw	6
   921  001190  6F13               	movwf	19,b	;volatile
   922                           
   923                           ;mcc_generated_files/system/src/pins.c: 81:     WPUC = 0x0;
   924  001192  0E00               	movlw	0
   925  001194  6F1B               	movwf	27,b	;volatile
   926                           
   927                           ;mcc_generated_files/system/src/pins.c: 82:     WPUD = 0x0;
   928  001196  0E00               	movlw	0
   929  001198  6F20               	movwf	32,b	;volatile
   930                           
   931                           ;mcc_generated_files/system/src/pins.c: 83:     WPUE = 0x0;
   932  00119A  0E00               	movlw	0
   933  00119C  6F28               	movwf	40,b	;volatile
   934                           
   935                           ;mcc_generated_files/system/src/pins.c: 88:     ODCONA = 0x0;
   936  00119E  0E00               	movlw	0
   937  0011A0  6F0A               	movwf	10,b	;volatile
   938                           
   939                           ;mcc_generated_files/system/src/pins.c: 89:     ODCONB = 0x6;
   940  0011A2  0E06               	movlw	6
   941  0011A4  6F12               	movwf	18,b	;volatile
   942                           
   943                           ;mcc_generated_files/system/src/pins.c: 90:     ODCONC = 0x0;
   944  0011A6  0E00               	movlw	0
   945  0011A8  6F1A               	movwf	26,b	;volatile
   946                           
   947                           ;mcc_generated_files/system/src/pins.c: 91:     ODCOND = 0x0;
   948  0011AA  0E00               	movlw	0
   949  0011AC  6F1F               	movwf	31,b	;volatile
   950                           
   951                           ;mcc_generated_files/system/src/pins.c: 92:     ODCONE = 0x0;
   952  0011AE  0E00               	movlw	0
   953  0011B0  6F27               	movwf	39,b	;volatile
   954  0011B2                     
   955                           ; BSR set to: 15
   956                           ;mcc_generated_files/system/src/pins.c: 97:     SLRCONA = 0xFF;
   957  0011B2  6909               	setf	9,b	;volatile
   958  0011B4                     
   959                           ; BSR set to: 15
   960                           ;mcc_generated_files/system/src/pins.c: 98:     SLRCONB = 0xFF;
   961  0011B4  6911               	setf	17,b	;volatile
   962  0011B6                     
   963                           ; BSR set to: 15
   964                           ;mcc_generated_files/system/src/pins.c: 99:     SLRCONC = 0xFF;
   965  0011B6  6919               	setf	25,b	;volatile
   966  0011B8                     
   967                           ; BSR set to: 15
   968                           ;mcc_generated_files/system/src/pins.c: 100:     SLRCOND = 0xFF;
   969  0011B8  691E               	setf	30,b	;volatile
   970                           
   971                           ;mcc_generated_files/system/src/pins.c: 101:     SLRCONE = 0x7;
   972  0011BA  0E07               	movlw	7
   973  0011BC  6F26               	movwf	38,b	;volatile
   974  0011BE                     
   975                           ; BSR set to: 15
   976                           ;mcc_generated_files/system/src/pins.c: 106:     INLVLA = 0xFF;
   977  0011BE  6908               	setf	8,b	;volatile
   978  0011C0                     
   979                           ; BSR set to: 15
   980                           ;mcc_generated_files/system/src/pins.c: 107:     INLVLB = 0xFF;
   981  0011C0  6910               	setf	16,b	;volatile
   982  0011C2                     
   983                           ; BSR set to: 15
   984                           ;mcc_generated_files/system/src/pins.c: 108:     INLVLC = 0xFF;
   985  0011C2  6918               	setf	24,b	;volatile
   986  0011C4                     
   987                           ; BSR set to: 15
   988                           ;mcc_generated_files/system/src/pins.c: 109:     INLVLD = 0xFF;
   989  0011C4  691D               	setf	29,b	;volatile
   990                           
   991                           ;mcc_generated_files/system/src/pins.c: 110:     INLVLE = 0xF;
   992  0011C6  0E0F               	movlw	15
   993  0011C8  6F25               	movwf	37,b	;volatile
   994                           
   995                           ;mcc_generated_files/system/src/pins.c: 114:     SSP1CLKPPS = 0x9;
   996  0011CA  0E09               	movlw	9
   997  0011CC  010E               	movlb	14	; () banked
   998  0011CE  6FB2               	movwf	178,b	;volatile
   999                           
  1000                           ;mcc_generated_files/system/src/pins.c: 115:     RB1PPS = 0x0F;
  1001  0011D0  0E0F               	movlw	15
  1002  0011D2  6FEB               	movwf	235,b	;volatile
  1003                           
  1004                           ;mcc_generated_files/system/src/pins.c: 116:     SSP1DATPPS = 0xA;
  1005  0011D4  0E0A               	movlw	10
  1006  0011D6  6FB3               	movwf	179,b	;volatile
  1007                           
  1008                           ;mcc_generated_files/system/src/pins.c: 117:     RB2PPS = 0x10;
  1009  0011D8  0E10               	movlw	16
  1010  0011DA  6FEC               	movwf	236,b	;volatile
  1011                           
  1012                           ;mcc_generated_files/system/src/pins.c: 122:     IOCAP = 0x0;
  1013  0011DC  0E00               	movlw	0
  1014  0011DE  010F               	movlb	15	; () banked
  1015  0011E0  6F07               	movwf	7,b	;volatile
  1016                           
  1017                           ;mcc_generated_files/system/src/pins.c: 123:     IOCAN = 0x0;
  1018  0011E2  0E00               	movlw	0
  1019  0011E4  6F06               	movwf	6,b	;volatile
  1020                           
  1021                           ;mcc_generated_files/system/src/pins.c: 124:     IOCAF = 0x0;
  1022  0011E6  0E00               	movlw	0
  1023  0011E8  6F05               	movwf	5,b	;volatile
  1024                           
  1025                           ;mcc_generated_files/system/src/pins.c: 125:     IOCBP = 0x0;
  1026  0011EA  0E00               	movlw	0
  1027  0011EC  6F0F               	movwf	15,b	;volatile
  1028                           
  1029                           ;mcc_generated_files/system/src/pins.c: 126:     IOCBN = 0x0;
  1030  0011EE  0E00               	movlw	0
  1031  0011F0  6F0E               	movwf	14,b	;volatile
  1032                           
  1033                           ;mcc_generated_files/system/src/pins.c: 127:     IOCBF = 0x0;
  1034  0011F2  0E00               	movlw	0
  1035  0011F4  6F0D               	movwf	13,b	;volatile
  1036                           
  1037                           ;mcc_generated_files/system/src/pins.c: 128:     IOCCP = 0x0;
  1038  0011F6  0E00               	movlw	0
  1039  0011F8  6F17               	movwf	23,b	;volatile
  1040                           
  1041                           ;mcc_generated_files/system/src/pins.c: 129:     IOCCN = 0x0;
  1042  0011FA  0E00               	movlw	0
  1043  0011FC  6F16               	movwf	22,b	;volatile
  1044                           
  1045                           ;mcc_generated_files/system/src/pins.c: 130:     IOCCF = 0x0;
  1046  0011FE  0E00               	movlw	0
  1047  001200  6F15               	movwf	21,b	;volatile
  1048                           
  1049                           ;mcc_generated_files/system/src/pins.c: 131:     IOCEP = 0x0;
  1050  001202  0E00               	movlw	0
  1051  001204  6F24               	movwf	36,b	;volatile
  1052                           
  1053                           ;mcc_generated_files/system/src/pins.c: 132:     IOCEN = 0x0;
  1054  001206  0E00               	movlw	0
  1055  001208  6F23               	movwf	35,b	;volatile
  1056                           
  1057                           ;mcc_generated_files/system/src/pins.c: 133:     IOCEF = 0x0;
  1058  00120A  0E00               	movlw	0
  1059  00120C  6F22               	movwf	34,b	;volatile
  1060  00120E                     
  1061                           ; BSR set to: 15
  1062  00120E  0012               	return		;funcret
  1063  001210                     __end_of_PIN_MANAGER_Initialize:
  1064                           	callstack 0
  1065                           
  1066 ;; *************** function _INTERRUPT_Initialize *****************
  1067 ;; Defined at:
  1068 ;;		line 52 in file "mcc_generated_files/system/src/interrupt.c"
  1069 ;; Parameters:    Size  Location     Type
  1070 ;;		None
  1071 ;; Auto vars:     Size  Location     Type
  1072 ;;		None
  1073 ;; Return value:  Size  Location     Type
  1074 ;;                  1    wreg      void 
  1075 ;; Registers used:
  1076 ;;		wreg, status,2, status,0, cstack
  1077 ;; Tracked objects:
  1078 ;;		On entry : 0/0
  1079 ;;		On exit  : 0/0
  1080 ;;		Unchanged: 0/0
  1081 ;; Data sizes:     COMRAM   BANK0   BANK1   BANK2   BANK3   BANK4   BANK5   BANK6   BANK7   BANK8   BANK9  BANK10  BANK1
      +1  BANK12  BANK13  BANK14
  1082 ;;      Params:         0       0       0       0       0       0       0       0       0       0       0       0       
      +0       0       0       0
  1083 ;;      Locals:         0       0       0       0       0       0       0       0       0       0       0       0       
      +0       0       0       0
  1084 ;;      Temps:          0       0       0       0       0       0       0       0       0       0       0       0       
      +0       0       0       0
  1085 ;;      Totals:         0       0       0       0       0       0       0       0       0       0       0       0       
      +0       0       0       0
  1086 ;;Total ram usage:        0 bytes
  1087 ;; Hardware stack levels used: 1
  1088 ;; Hardware stack levels required when called: 1
  1089 ;; This function calls:
  1090 ;;		_INT0_SetInterruptHandler
  1091 ;;		_INT1_SetInterruptHandler
  1092 ;;		_INT2_SetInterruptHandler
  1093 ;; This function is called by:
  1094 ;;		_SYSTEM_Initialize
  1095 ;; This function uses a non-reentrant model
  1096 ;;
  1097                           
  1098                           	psect	text3
  1099  00143A                     __ptext3:
  1100                           	callstack 0
  1101  00143A                     _INTERRUPT_Initialize:
  1102                           	callstack 28
  1103  00143A                     
  1104                           ;mcc_generated_files/system/src/interrupt.c: 55:     INTCONbits.IPEN = 0;
  1105  00143A  9AF2               	bcf	242,5,c	;volatile
  1106                           
  1107                           ;mcc_generated_files/system/src/interrupt.c: 59:     (PIR0bits.INT0IF = 0);
  1108  00143C  010E               	movlb	14	; () banked
  1109  00143E  91C5               	bcf	197,0,b	;volatile
  1110                           
  1111                           ;mcc_generated_files/system/src/interrupt.c: 60:     (INTCONbits.INT0EDG = 1);
  1112  001440  80F2               	bsf	242,0,c	;volatile
  1113  001442                     
  1114                           ; BSR set to: 14
  1115                           ;mcc_generated_files/system/src/interrupt.c: 62:     INT0_SetInterruptHandler(INT0_Defau
      +                          ltInterruptHandler);
  1116  001442  0E00               	movlw	0
  1117  001444  6E1B               	movwf	INT0_SetInterruptHandler@InterruptHandler^0,c
  1118  001446  0E00               	movlw	0
  1119  001448  6E1C               	movwf	(INT0_SetInterruptHandler@InterruptHandler+1)^0,c
  1120  00144A  0E00               	movlw	0
  1121  00144C  6E1D               	movwf	(INT0_SetInterruptHandler@InterruptHandler+2)^0,c
  1122  00144E  EC14  F00B         	call	_INT0_SetInterruptHandler	;wreg free
  1123  001452                     
  1124                           ;mcc_generated_files/system/src/interrupt.c: 67:     (PIR0bits.INT1IF = 0);
  1125  001452  010E               	movlb	14	; () banked
  1126  001454  93C5               	bcf	197,1,b	;volatile
  1127  001456                     
  1128                           ; BSR set to: 14
  1129                           ;mcc_generated_files/system/src/interrupt.c: 68:     (INTCONbits.INT1EDG = 1);
  1130  001456  82F2               	bsf	242,1,c	;volatile
  1131                           
  1132                           ;mcc_generated_files/system/src/interrupt.c: 70:     INT1_SetInterruptHandler(INT1_Defau
      +                          ltInterruptHandler);
  1133  001458  0E00               	movlw	0
  1134  00145A  6E1B               	movwf	INT1_SetInterruptHandler@InterruptHandler^0,c
  1135  00145C  0E00               	movlw	0
  1136  00145E  6E1C               	movwf	(INT1_SetInterruptHandler@InterruptHandler+1)^0,c
  1137  001460  0E00               	movlw	0
  1138  001462  6E1D               	movwf	(INT1_SetInterruptHandler@InterruptHandler+2)^0,c
  1139  001464  EC0D  F00B         	call	_INT1_SetInterruptHandler	;wreg free
  1140  001468                     
  1141                           ;mcc_generated_files/system/src/interrupt.c: 75:     (PIR0bits.INT2IF = 0);
  1142  001468  010E               	movlb	14	; () banked
  1143  00146A  95C5               	bcf	197,2,b	;volatile
  1144  00146C                     
  1145                           ; BSR set to: 14
  1146                           ;mcc_generated_files/system/src/interrupt.c: 76:     (INTCONbits.INT2EDG = 1);
  1147  00146C  84F2               	bsf	242,2,c	;volatile
  1148                           
  1149                           ;mcc_generated_files/system/src/interrupt.c: 78:     INT2_SetInterruptHandler(INT2_Defau
      +                          ltInterruptHandler);
  1150  00146E  0E00               	movlw	0
  1151  001470  6E1B               	movwf	INT2_SetInterruptHandler@InterruptHandler^0,c
  1152  001472  0E00               	movlw	0
  1153  001474  6E1C               	movwf	(INT2_SetInterruptHandler@InterruptHandler+1)^0,c
  1154  001476  0E00               	movlw	0
  1155  001478  6E1D               	movwf	(INT2_SetInterruptHandler@InterruptHandler+2)^0,c
  1156  00147A  EC06  F00B         	call	_INT2_SetInterruptHandler	;wreg free
  1157  00147E  0012               	return		;funcret
  1158  001480                     __end_of_INTERRUPT_Initialize:
  1159                           	callstack 0
  1160                           
  1161 ;; *************** function _INT2_SetInterruptHandler *****************
  1162 ;; Defined at:
  1163 ;;		line 154 in file "mcc_generated_files/system/src/interrupt.c"
  1164 ;; Parameters:    Size  Location     Type
  1165 ;;  InterruptHan    3    0[COMRAM] PTR FTN()void 
  1166 ;;		 -> INT2_DefaultInterruptHandler(1), 
  1167 ;; Auto vars:     Size  Location     Type
  1168 ;;		None
  1169 ;; Return value:  Size  Location     Type
  1170 ;;                  1    wreg      void 
  1171 ;; Registers used:
  1172 ;;		wreg, status,2, status,0
  1173 ;; Tracked objects:
  1174 ;;		On entry : 0/0
  1175 ;;		On exit  : 0/0
  1176 ;;		Unchanged: 0/0
  1177 ;; Data sizes:     COMRAM   BANK0   BANK1   BANK2   BANK3   BANK4   BANK5   BANK6   BANK7   BANK8   BANK9  BANK10  BANK1
      +1  BANK12  BANK13  BANK14
  1178 ;;      Params:         3       0       0       0       0       0       0       0       0       0       0       0       
      +0       0       0       0
  1179 ;;      Locals:         0       0       0       0       0       0       0       0       0       0       0       0       
      +0       0       0       0
  1180 ;;      Temps:          0       0       0       0       0       0       0       0       0       0       0       0       
      +0       0       0       0
  1181 ;;      Totals:         3       0       0       0       0       0       0       0       0       0       0       0       
      +0       0       0       0
  1182 ;;Total ram usage:        3 bytes
  1183 ;; Hardware stack levels used: 1
  1184 ;; This function calls:
  1185 ;;		Nothing
  1186 ;; This function is called by:
  1187 ;;		_INTERRUPT_Initialize
  1188 ;; This function uses a non-reentrant model
  1189 ;;
  1190                           
  1191                           	psect	text4
  1192  00160C                     __ptext4:
  1193                           	callstack 0
  1194  00160C                     _INT2_SetInterruptHandler:
  1195                           	callstack 28
  1196  00160C                     
  1197                           ;mcc_generated_files/system/src/interrupt.c: 155:     INT2_InterruptHandler = InterruptH
      +                          andler;
  1198  00160C  C01B  F00F         	movff	INT2_SetInterruptHandler@InterruptHandler,_INT2_InterruptHandler
  1199  001610  C01C  F010         	movff	INT2_SetInterruptHandler@InterruptHandler+1,_INT2_InterruptHandler+1
  1200  001614  C01D  F011         	movff	INT2_SetInterruptHandler@InterruptHandler+2,_INT2_InterruptHandler+2
  1201  001618  0012               	return		;funcret
  1202  00161A                     __end_of_INT2_SetInterruptHandler:
  1203                           	callstack 0
  1204                           
  1205 ;; *************** function _INT1_SetInterruptHandler *****************
  1206 ;; Defined at:
  1207 ;;		line 128 in file "mcc_generated_files/system/src/interrupt.c"
  1208 ;; Parameters:    Size  Location     Type
  1209 ;;  InterruptHan    3    0[COMRAM] PTR FTN()void 
  1210 ;;		 -> INT1_DefaultInterruptHandler(1), 
  1211 ;; Auto vars:     Size  Location     Type
  1212 ;;		None
  1213 ;; Return value:  Size  Location     Type
  1214 ;;                  1    wreg      void 
  1215 ;; Registers used:
  1216 ;;		wreg, status,2, status,0
  1217 ;; Tracked objects:
  1218 ;;		On entry : 0/0
  1219 ;;		On exit  : 0/0
  1220 ;;		Unchanged: 0/0
  1221 ;; Data sizes:     COMRAM   BANK0   BANK1   BANK2   BANK3   BANK4   BANK5   BANK6   BANK7   BANK8   BANK9  BANK10  BANK1
      +1  BANK12  BANK13  BANK14
  1222 ;;      Params:         3       0       0       0       0       0       0       0       0       0       0       0       
      +0       0       0       0
  1223 ;;      Locals:         0       0       0       0       0       0       0       0       0       0       0       0       
      +0       0       0       0
  1224 ;;      Temps:          0       0       0       0       0       0       0       0       0       0       0       0       
      +0       0       0       0
  1225 ;;      Totals:         3       0       0       0       0       0       0       0       0       0       0       0       
      +0       0       0       0
  1226 ;;Total ram usage:        3 bytes
  1227 ;; Hardware stack levels used: 1
  1228 ;; This function calls:
  1229 ;;		Nothing
  1230 ;; This function is called by:
  1231 ;;		_INTERRUPT_Initialize
  1232 ;; This function uses a non-reentrant model
  1233 ;;
  1234                           
  1235                           	psect	text5
  1236  00161A                     __ptext5:
  1237                           	callstack 0
  1238  00161A                     _INT1_SetInterruptHandler:
  1239                           	callstack 28
  1240  00161A                     
  1241                           ;mcc_generated_files/system/src/interrupt.c: 129:     INT1_InterruptHandler = InterruptH
      +                          andler;
  1242  00161A  C01B  F012         	movff	INT1_SetInterruptHandler@InterruptHandler,_INT1_InterruptHandler
  1243  00161E  C01C  F013         	movff	INT1_SetInterruptHandler@InterruptHandler+1,_INT1_InterruptHandler+1
  1244  001622  C01D  F014         	movff	INT1_SetInterruptHandler@InterruptHandler+2,_INT1_InterruptHandler+2
  1245  001626  0012               	return		;funcret
  1246  001628                     __end_of_INT1_SetInterruptHandler:
  1247                           	callstack 0
  1248                           
  1249 ;; *************** function _INT0_SetInterruptHandler *****************
  1250 ;; Defined at:
  1251 ;;		line 102 in file "mcc_generated_files/system/src/interrupt.c"
  1252 ;; Parameters:    Size  Location     Type
  1253 ;;  InterruptHan    3    0[COMRAM] PTR FTN()void 
  1254 ;;		 -> INT0_DefaultInterruptHandler(1), 
  1255 ;; Auto vars:     Size  Location     Type
  1256 ;;		None
  1257 ;; Return value:  Size  Location     Type
  1258 ;;                  1    wreg      void 
  1259 ;; Registers used:
  1260 ;;		wreg, status,2, status,0
  1261 ;; Tracked objects:
  1262 ;;		On entry : 0/0
  1263 ;;		On exit  : 0/0
  1264 ;;		Unchanged: 0/0
  1265 ;; Data sizes:     COMRAM   BANK0   BANK1   BANK2   BANK3   BANK4   BANK5   BANK6   BANK7   BANK8   BANK9  BANK10  BANK1
      +1  BANK12  BANK13  BANK14
  1266 ;;      Params:         3       0       0       0       0       0       0       0       0       0       0       0       
      +0       0       0       0
  1267 ;;      Locals:         0       0       0       0       0       0       0       0       0       0       0       0       
      +0       0       0       0
  1268 ;;      Temps:          0       0       0       0       0       0       0       0       0       0       0       0       
      +0       0       0       0
  1269 ;;      Totals:         3       0       0       0       0       0       0       0       0       0       0       0       
      +0       0       0       0
  1270 ;;Total ram usage:        3 bytes
  1271 ;; Hardware stack levels used: 1
  1272 ;; This function calls:
  1273 ;;		Nothing
  1274 ;; This function is called by:
  1275 ;;		_INTERRUPT_Initialize
  1276 ;; This function uses a non-reentrant model
  1277 ;;
  1278                           
  1279                           	psect	text6
  1280  001628                     __ptext6:
  1281                           	callstack 0
  1282  001628                     _INT0_SetInterruptHandler:
  1283                           	callstack 28
  1284  001628                     
  1285                           ;mcc_generated_files/system/src/interrupt.c: 103:     INT0_InterruptHandler = InterruptH
      +                          andler;
  1286  001628  C01B  F015         	movff	INT0_SetInterruptHandler@InterruptHandler,_INT0_InterruptHandler
  1287  00162C  C01C  F016         	movff	INT0_SetInterruptHandler@InterruptHandler+1,_INT0_InterruptHandler+1
  1288  001630  C01D  F017         	movff	INT0_SetInterruptHandler@InterruptHandler+2,_INT0_InterruptHandler+2
  1289  001634  0012               	return		;funcret
  1290  001636                     __end_of_INT0_SetInterruptHandler:
  1291                           	callstack 0
  1292                           
  1293 ;; *************** function _I2C1_Initialize *****************
  1294 ;; Defined at:
  1295 ;;		line 112 in file "mcc_generated_files/i2c_host/src/mssp1.c"
  1296 ;; Parameters:    Size  Location     Type
  1297 ;;		None
  1298 ;; Auto vars:     Size  Location     Type
  1299 ;;		None
  1300 ;; Return value:  Size  Location     Type
  1301 ;;                  1    wreg      void 
  1302 ;; Registers used:
  1303 ;;		wreg, status,2, status,0, cstack
  1304 ;; Tracked objects:
  1305 ;;		On entry : 0/0
  1306 ;;		On exit  : 0/0
  1307 ;;		Unchanged: 0/0
  1308 ;; Data sizes:     COMRAM   BANK0   BANK1   BANK2   BANK3   BANK4   BANK5   BANK6   BANK7   BANK8   BANK9  BANK10  BANK1
      +1  BANK12  BANK13  BANK14
  1309 ;;      Params:         0       0       0       0       0       0       0       0       0       0       0       0       
      +0       0       0       0
  1310 ;;      Locals:         0       0       0       0       0       0       0       0       0       0       0       0       
      +0       0       0       0
  1311 ;;      Temps:          0       0       0       0       0       0       0       0       0       0       0       0       
      +0       0       0       0
  1312 ;;      Totals:         0       0       0       0       0       0       0       0       0       0       0       0       
      +0       0       0       0
  1313 ;;Total ram usage:        0 bytes
  1314 ;; Hardware stack levels used: 1
  1315 ;; Hardware stack levels required when called: 1
  1316 ;; This function calls:
  1317 ;;		_I2C1_CallbackRegister
  1318 ;; This function is called by:
  1319 ;;		_SYSTEM_Initialize
  1320 ;; This function uses a non-reentrant model
  1321 ;;
  1322                           
  1323                           	psect	text7
  1324  001540                     __ptext7:
  1325                           	callstack 0
  1326  001540                     _I2C1_Initialize:
  1327                           	callstack 28
  1328  001540                     
  1329                           ;mcc_generated_files/i2c_host/src/mssp1.c: 115:     SSP1STAT = 0x80;
  1330  001540  0E80               	movlw	128
  1331  001542  6E94               	movwf	148,c	;volatile
  1332                           
  1333                           ;mcc_generated_files/i2c_host/src/mssp1.c: 117:     SSP1CON1 = 0x8;
  1334  001544  0E08               	movlw	8
  1335  001546  6E95               	movwf	149,c	;volatile
  1336                           
  1337                           ;mcc_generated_files/i2c_host/src/mssp1.c: 119:     SSP1CON2 = 0x0;
  1338  001548  0E00               	movlw	0
  1339  00154A  6E96               	movwf	150,c	;volatile
  1340                           
  1341                           ;mcc_generated_files/i2c_host/src/mssp1.c: 121:     SSP1CON3 = 0x0;
  1342  00154C  0E00               	movlw	0
  1343  00154E  6E97               	movwf	151,c	;volatile
  1344                           
  1345                           ;mcc_generated_files/i2c_host/src/mssp1.c: 123:     SSP1ADD = 0x9;
  1346  001550  0E09               	movlw	9
  1347  001552  6E92               	movwf	146,c	;volatile
  1348  001554                     
  1349                           ;mcc_generated_files/i2c_host/src/mssp1.c: 124:     I2C1_CallbackRegister(I2C1_DefaultCa
      +                          llback);
  1350  001554  0EDE               	movlw	low _I2C1_DefaultCallback
  1351  001556  6E1B               	movwf	I2C1_CallbackRegister@callbackHandler^0,c
  1352  001558  0E16               	movlw	high _I2C1_DefaultCallback
  1353  00155A  6E1C               	movwf	(I2C1_CallbackRegister@callbackHandler+1)^0,c
  1354  00155C  0E00               	movlw	low (_I2C1_DefaultCallback shr (0+16))
  1355  00155E  6E1D               	movwf	(I2C1_CallbackRegister@callbackHandler+2)^0,c
  1356  001560  ECB4  F00A         	call	_I2C1_CallbackRegister	;wreg free
  1357  001564                     
  1358                           ;mcc_generated_files/i2c_host/src/mssp1.c: 125:     SSP1CON1bits.SSPEN = 1;
  1359  001564  8A95               	bsf	149,5,c	;volatile
  1360  001566  0012               	return		;funcret
  1361  001568                     __end_of_I2C1_Initialize:
  1362                           	callstack 0
  1363                           
  1364 ;; *************** function _I2C1_CallbackRegister *****************
  1365 ;; Defined at:
  1366 ;;		line 207 in file "mcc_generated_files/i2c_host/src/mssp1.c"
  1367 ;; Parameters:    Size  Location     Type
  1368 ;;  callbackHand    3    0[COMRAM] PTR FTN()void 
  1369 ;;		 -> I2C1_DefaultCallback(1), 
  1370 ;; Auto vars:     Size  Location     Type
  1371 ;;		None
  1372 ;; Return value:  Size  Location     Type
  1373 ;;                  1    wreg      void 
  1374 ;; Registers used:
  1375 ;;		wreg, status,2, status,0
  1376 ;; Tracked objects:
  1377 ;;		On entry : 0/0
  1378 ;;		On exit  : 0/0
  1379 ;;		Unchanged: 0/0
  1380 ;; Data sizes:     COMRAM   BANK0   BANK1   BANK2   BANK3   BANK4   BANK5   BANK6   BANK7   BANK8   BANK9  BANK10  BANK1
      +1  BANK12  BANK13  BANK14
  1381 ;;      Params:         3       0       0       0       0       0       0       0       0       0       0       0       
      +0       0       0       0
  1382 ;;      Locals:         0       0       0       0       0       0       0       0       0       0       0       0       
      +0       0       0       0
  1383 ;;      Temps:          0       0       0       0       0       0       0       0       0       0       0       0       
      +0       0       0       0
  1384 ;;      Totals:         3       0       0       0       0       0       0       0       0       0       0       0       
      +0       0       0       0
  1385 ;;Total ram usage:        3 bytes
  1386 ;; Hardware stack levels used: 1
  1387 ;; This function calls:
  1388 ;;		Nothing
  1389 ;; This function is called by:
  1390 ;;		_I2C1_Initialize
  1391 ;;		_I2C1_Deinitialize
  1392 ;; This function uses a non-reentrant model
  1393 ;;
  1394                           
  1395                           	psect	text8
  1396  001568                     __ptext8:
  1397                           	callstack 0
  1398  001568                     _I2C1_CallbackRegister:
  1399                           	callstack 28
  1400  001568                     
  1401                           ;mcc_generated_files/i2c_host/src/mssp1.c: 207: void I2C1_CallbackRegister(void (*callba
      +                          ckHandler)(void));mcc_generated_files/i2c_host/src/mssp1.c: 208: {;mcc_generated_files/i
      +                          2c_host/src/mssp1.c: 209:     if (callbackHandler != ((void*)0))
  1402  001568  501B               	movf	I2C1_CallbackRegister@callbackHandler^0,w,c
  1403  00156A  101C               	iorwf	(I2C1_CallbackRegister@callbackHandler+1)^0,w,c
  1404  00156C  101D               	iorwf	(I2C1_CallbackRegister@callbackHandler+2)^0,w,c
  1405  00156E  B4D8               	btfsc	status,2,c
  1406  001570  EFBC  F00A         	goto	u451
  1407  001574  EFBE  F00A         	goto	u450
  1408  001578                     u451:
  1409  001578  EFC4  F00A         	goto	l155
  1410  00157C                     u450:
  1411  00157C                     
  1412                           ;mcc_generated_files/i2c_host/src/mssp1.c: 210:     {;mcc_generated_files/i2c_host/src/m
      +                          ssp1.c: 211:         I2C1_Callback = callbackHandler;
  1413  00157C  C01B  F018         	movff	I2C1_CallbackRegister@callbackHandler,_I2C1_Callback
  1414  001580  C01C  F019         	movff	I2C1_CallbackRegister@callbackHandler+1,_I2C1_Callback+1
  1415  001584  C01D  F01A         	movff	I2C1_CallbackRegister@callbackHandler+2,_I2C1_Callback+2
  1416  001588                     l155:
  1417  001588  0012               	return		;funcret
  1418  00158A                     __end_of_I2C1_CallbackRegister:
  1419                           	callstack 0
  1420                           
  1421 ;; *************** function _CLOCK_Initialize *****************
  1422 ;; Defined at:
  1423 ;;		line 46 in file "mcc_generated_files/system/src/clock.c"
  1424 ;; Parameters:    Size  Location     Type
  1425 ;;		None
  1426 ;; Auto vars:     Size  Location     Type
  1427 ;;		None
  1428 ;; Return value:  Size  Location     Type
  1429 ;;                  1    wreg      void 
  1430 ;; Registers used:
  1431 ;;		wreg, status,2
  1432 ;; Tracked objects:
  1433 ;;		On entry : 0/0
  1434 ;;		On exit  : 0/0
  1435 ;;		Unchanged: 0/0
  1436 ;; Data sizes:     COMRAM   BANK0   BANK1   BANK2   BANK3   BANK4   BANK5   BANK6   BANK7   BANK8   BANK9  BANK10  BANK1
      +1  BANK12  BANK13  BANK14
  1437 ;;      Params:         0       0       0       0       0       0       0       0       0       0       0       0       
      +0       0       0       0
  1438 ;;      Locals:         0       0       0       0       0       0       0       0       0       0       0       0       
      +0       0       0       0
  1439 ;;      Temps:          0       0       0       0       0       0       0       0       0       0       0       0       
      +0       0       0       0
  1440 ;;      Totals:         0       0       0       0       0       0       0       0       0       0       0       0       
      +0       0       0       0
  1441 ;;Total ram usage:        0 bytes
  1442 ;; Hardware stack levels used: 1
  1443 ;; This function calls:
  1444 ;;		Nothing
  1445 ;; This function is called by:
  1446 ;;		_SYSTEM_Initialize
  1447 ;; This function uses a non-reentrant model
  1448 ;;
  1449                           
  1450                           	psect	text9
  1451  00158A                     __ptext9:
  1452                           	callstack 0
  1453  00158A                     _CLOCK_Initialize:
  1454                           	callstack 29
  1455  00158A                     
  1456                           ;mcc_generated_files/system/src/clock.c: 50:     OSCCON1 = 0x60;
  1457  00158A  0E60               	movlw	96
  1458  00158C  010E               	movlb	14	; () banked
  1459  00158E  6FD3               	movwf	211,b	;volatile
  1460                           
  1461                           ;mcc_generated_files/system/src/clock.c: 52:     OSCCON2 = 0x70;
  1462  001590  0E70               	movlw	112
  1463  001592  6FD4               	movwf	212,b	;volatile
  1464                           
  1465                           ;mcc_generated_files/system/src/clock.c: 54:     OSCCON3 = 0x0;
  1466  001594  0E00               	movlw	0
  1467  001596  6FD5               	movwf	213,b	;volatile
  1468                           
  1469                           ;mcc_generated_files/system/src/clock.c: 56:     OSCEN = 0x0;
  1470  001598  0E00               	movlw	0
  1471  00159A  6FD7               	movwf	215,b	;volatile
  1472                           
  1473                           ;mcc_generated_files/system/src/clock.c: 58:     OSCFRQ = 0x2;
  1474  00159C  0E02               	movlw	2
  1475  00159E  6FD9               	movwf	217,b	;volatile
  1476                           
  1477                           ;mcc_generated_files/system/src/clock.c: 60:     OSCSTAT = 0x0;
  1478  0015A0  0E00               	movlw	0
  1479  0015A2  6FD6               	movwf	214,b	;volatile
  1480                           
  1481                           ;mcc_generated_files/system/src/clock.c: 62:     OSCTUNE = 0x0;
  1482  0015A4  0E00               	movlw	0
  1483  0015A6  6FD8               	movwf	216,b	;volatile
  1484  0015A8                     
  1485                           ; BSR set to: 14
  1486  0015A8  0012               	return		;funcret
  1487  0015AA                     __end_of_CLOCK_Initialize:
  1488                           	callstack 0
  1489                           
  1490 ;; *************** function _I2C1_Write *****************
  1491 ;; Defined at:
  1492 ;;		line 138 in file "mcc_generated_files/i2c_host/src/mssp1.c"
  1493 ;; Parameters:    Size  Location     Type
  1494 ;;  address         2    1[COMRAM] unsigned short 
  1495 ;;  data            2    3[COMRAM] PTR unsigned char 
  1496 ;;		 -> main@data(2), 
  1497 ;;  dataLength      2    5[COMRAM] unsigned int 
  1498 ;; Auto vars:     Size  Location     Type
  1499 ;;  retStatus       1    7[COMRAM] _Bool 
  1500 ;; Return value:  Size  Location     Type
  1501 ;;                  1    wreg      _Bool 
  1502 ;; Registers used:
  1503 ;;		wreg, status,2, status,0, cstack
  1504 ;; Tracked objects:
  1505 ;;		On entry : 0/0
  1506 ;;		On exit  : 0/0
  1507 ;;		Unchanged: 0/0
  1508 ;; Data sizes:     COMRAM   BANK0   BANK1   BANK2   BANK3   BANK4   BANK5   BANK6   BANK7   BANK8   BANK9  BANK10  BANK1
      +1  BANK12  BANK13  BANK14
  1509 ;;      Params:         6       0       0       0       0       0       0       0       0       0       0       0       
      +0       0       0       0
  1510 ;;      Locals:         1       0       0       0       0       0       0       0       0       0       0       0       
      +0       0       0       0
  1511 ;;      Temps:          0       0       0       0       0       0       0       0       0       0       0       0       
      +0       0       0       0
  1512 ;;      Totals:         7       0       0       0       0       0       0       0       0       0       0       0       
      +0       0       0       0
  1513 ;;Total ram usage:        7 bytes
  1514 ;; Hardware stack levels used: 1
  1515 ;; Hardware stack levels required when called: 2
  1516 ;; This function calls:
  1517 ;;		_I2C1_IsBusy
  1518 ;;		_I2C1_WriteStart
  1519 ;; This function is called by:
  1520 ;;		_main
  1521 ;; This function uses a non-reentrant model
  1522 ;;
  1523                           
  1524                           	psect	text10
  1525  0013E2                     __ptext10:
  1526                           	callstack 0
  1527  0013E2                     _I2C1_Write:
  1528                           	callstack 28
  1529  0013E2                     
  1530                           ;mcc_generated_files/i2c_host/src/mssp1.c: 138: _Bool I2C1_Write(uint16_t address, uint8
      +                          _t *data, size_t dataLength);mcc_generated_files/i2c_host/src/mssp1.c: 139: {;mcc_genera
      +                          ted_files/i2c_host/src/mssp1.c: 140:     _Bool retStatus = 0;
  1531  0013E2  0E00               	movlw	0
  1532  0013E4  6E22               	movwf	I2C1_Write@retStatus^0,c
  1533  0013E6                     
  1534                           ;mcc_generated_files/i2c_host/src/mssp1.c: 141:     if (!I2C1_IsBusy())
  1535  0013E6  EC8B  F00A         	call	_I2C1_IsBusy	;wreg free
  1536  0013EA  0900               	iorlw	0
  1537  0013EC  A4D8               	btfss	status,2,c
  1538  0013EE  EFFB  F009         	goto	u481
  1539  0013F2  EFFD  F009         	goto	u480
  1540  0013F6                     u481:
  1541  0013F6  EF1B  F00A         	goto	l1631
  1542  0013FA                     u480:
  1543  0013FA                     
  1544                           ;mcc_generated_files/i2c_host/src/mssp1.c: 142:     {;mcc_generated_files/i2c_host/src/m
      +                          ssp1.c: 143:         i2c1Status.busy = 1;
  1545  0013FA  0E01               	movlw	1
  1546  0013FC  6E01               	movwf	_i2c1Status^0,c	;volatile
  1547  0013FE                     
  1548                           ;mcc_generated_files/i2c_host/src/mssp1.c: 144:         i2c1Status.address = address;
  1549  0013FE  C01C  F002         	movff	I2C1_Write@address,_i2c1Status+1	;volatile
  1550  001402  C01D  F003         	movff	I2C1_Write@address+1,_i2c1Status+2	;volatile
  1551                           
  1552                           ;mcc_generated_files/i2c_host/src/mssp1.c: 145:         i2c1Status.switchToRead = 0;
  1553  001406  0E00               	movlw	0
  1554  001408  6E0C               	movwf	(_i2c1Status+11)^0,c	;volatile
  1555  00140A                     
  1556                           ;mcc_generated_files/i2c_host/src/mssp1.c: 146:         i2c1Status.writePtr = data;
  1557  00140A  C01E  F004         	movff	I2C1_Write@data,_i2c1Status+3	;volatile
  1558  00140E  C01F  F005         	movff	I2C1_Write@data+1,_i2c1Status+4	;volatile
  1559  001412                     
  1560                           ;mcc_generated_files/i2c_host/src/mssp1.c: 147:         i2c1Status.writeLength = dataLen
      +                          gth;
  1561  001412  C020  F006         	movff	I2C1_Write@dataLength,_i2c1Status+5	;volatile
  1562  001416  C021  F007         	movff	I2C1_Write@dataLength+1,_i2c1Status+6	;volatile
  1563  00141A                     
  1564                           ;mcc_generated_files/i2c_host/src/mssp1.c: 148:         i2c1Status.readPtr = ((void*)0);
  1565  00141A  0E00               	movlw	0
  1566  00141C  6E08               	movwf	(_i2c1Status+7)^0,c	;volatile
  1567  00141E  0E00               	movlw	0
  1568  001420  6E09               	movwf	(_i2c1Status+8)^0,c	;volatile
  1569                           
  1570                           ;mcc_generated_files/i2c_host/src/mssp1.c: 149:         i2c1Status.readLength = 0;
  1571  001422  0E00               	movlw	0
  1572  001424  6E0B               	movwf	(_i2c1Status+10)^0,c	;volatile
  1573  001426  0E00               	movlw	0
  1574  001428  6E0A               	movwf	(_i2c1Status+9)^0,c	;volatile
  1575                           
  1576                           ;mcc_generated_files/i2c_host/src/mssp1.c: 150:         i2c1Status.errorState = I2C_ERRO
      +                          R_NONE;
  1577  00142A  0E00               	movlw	0
  1578  00142C  6E0D               	movwf	(_i2c1Status+12)^0,c	;volatile
  1579  00142E                     
  1580                           ;mcc_generated_files/i2c_host/src/mssp1.c: 151:         I2C1_WriteStart();
  1581  00142E  EC39  F00B         	call	_I2C1_WriteStart	;wreg free
  1582  001432                     
  1583                           ;mcc_generated_files/i2c_host/src/mssp1.c: 152:         retStatus = 1;
  1584  001432  0E01               	movlw	1
  1585  001434  6E22               	movwf	I2C1_Write@retStatus^0,c
  1586  001436                     l1631:
  1587                           
  1588                           ;mcc_generated_files/i2c_host/src/mssp1.c: 154:     return retStatus;
  1589  001436  5022               	movf	I2C1_Write@retStatus^0,w,c
  1590  001438  0012               	return		;funcret
  1591  00143A                     __end_of_I2C1_Write:
  1592                           	callstack 0
  1593                           
  1594 ;; *************** function _I2C1_WriteStart *****************
  1595 ;; Defined at:
  1596 ;;		line 243 in file "mcc_generated_files/i2c_host/src/mssp1.c"
  1597 ;; Parameters:    Size  Location     Type
  1598 ;;		None
  1599 ;; Auto vars:     Size  Location     Type
  1600 ;;		None
  1601 ;; Return value:  Size  Location     Type
  1602 ;;                  1    wreg      void 
  1603 ;; Registers used:
  1604 ;;		wreg, status,2, cstack
  1605 ;; Tracked objects:
  1606 ;;		On entry : 0/0
  1607 ;;		On exit  : 0/0
  1608 ;;		Unchanged: 0/0
  1609 ;; Data sizes:     COMRAM   BANK0   BANK1   BANK2   BANK3   BANK4   BANK5   BANK6   BANK7   BANK8   BANK9  BANK10  BANK1
      +1  BANK12  BANK13  BANK14
  1610 ;;      Params:         0       0       0       0       0       0       0       0       0       0       0       0       
      +0       0       0       0
  1611 ;;      Locals:         0       0       0       0       0       0       0       0       0       0       0       0       
      +0       0       0       0
  1612 ;;      Temps:          0       0       0       0       0       0       0       0       0       0       0       0       
      +0       0       0       0
  1613 ;;      Totals:         0       0       0       0       0       0       0       0       0       0       0       0       
      +0       0       0       0
  1614 ;;Total ram usage:        0 bytes
  1615 ;; Hardware stack levels used: 1
  1616 ;; Hardware stack levels required when called: 1
  1617 ;; This function calls:
  1618 ;;		_I2C1_StartSend
  1619 ;; This function is called by:
  1620 ;;		_I2C1_Write
  1621 ;;		_I2C1_WriteRead
  1622 ;; This function uses a non-reentrant model
  1623 ;;
  1624                           
  1625                           	psect	text11
  1626  001672                     __ptext11:
  1627                           	callstack 0
  1628  001672                     _I2C1_WriteStart:
  1629                           	callstack 28
  1630  001672                     
  1631                           ;mcc_generated_files/i2c_host/src/mssp1.c: 245:     I2C1_StartSend();
  1632  001672  EC62  F00B         	call	_I2C1_StartSend	;wreg free
  1633  001676                     
  1634                           ;mcc_generated_files/i2c_host/src/mssp1.c: 246:     i2c1Status.state = I2C_STATE_SEND_WR
      +                          _ADDR;
  1635  001676  0E02               	movlw	2
  1636  001678  6E0E               	movwf	(_i2c1Status+13)^0,c	;volatile
  1637  00167A  0012               	return		;funcret
  1638  00167C                     __end_of_I2C1_WriteStart:
  1639                           	callstack 0
  1640                           
  1641 ;; *************** function _I2C1_StartSend *****************
  1642 ;; Defined at:
  1643 ;;		line 430 in file "mcc_generated_files/i2c_host/src/mssp1.c"
  1644 ;; Parameters:    Size  Location     Type
  1645 ;;		None
  1646 ;; Auto vars:     Size  Location     Type
  1647 ;;		None
  1648 ;; Return value:  Size  Location     Type
  1649 ;;                  1    wreg      void 
  1650 ;; Registers used:
  1651 ;;		None
  1652 ;; Tracked objects:
  1653 ;;		On entry : 0/0
  1654 ;;		On exit  : 0/0
  1655 ;;		Unchanged: 0/0
  1656 ;; Data sizes:     COMRAM   BANK0   BANK1   BANK2   BANK3   BANK4   BANK5   BANK6   BANK7   BANK8   BANK9  BANK10  BANK1
      +1  BANK12  BANK13  BANK14
  1657 ;;      Params:         0       0       0       0       0       0       0       0       0       0       0       0       
      +0       0       0       0
  1658 ;;      Locals:         0       0       0       0       0       0       0       0       0       0       0       0       
      +0       0       0       0
  1659 ;;      Temps:          0       0       0       0       0       0       0       0       0       0       0       0       
      +0       0       0       0
  1660 ;;      Totals:         0       0       0       0       0       0       0       0       0       0       0       0       
      +0       0       0       0
  1661 ;;Total ram usage:        0 bytes
  1662 ;; Hardware stack levels used: 1
  1663 ;; This function calls:
  1664 ;;		Nothing
  1665 ;; This function is called by:
  1666 ;;		_I2C1_WriteStart
  1667 ;;		_I2C1_ReadStart
  1668 ;; This function uses a non-reentrant model
  1669 ;;
  1670                           
  1671                           	psect	text12
  1672  0016C4                     __ptext12:
  1673                           	callstack 0
  1674  0016C4                     _I2C1_StartSend:
  1675                           	callstack 28
  1676  0016C4                     
  1677                           ;mcc_generated_files/i2c_host/src/mssp1.c: 432:     SSP1CON2bits.SEN = 1;
  1678  0016C4  8096               	bsf	150,0,c	;volatile
  1679  0016C6  0012               	return		;funcret
  1680  0016C8                     __end_of_I2C1_StartSend:
  1681                           	callstack 0
  1682                           
  1683 ;; *************** function _I2C1_IsBusy *****************
  1684 ;; Defined at:
  1685 ;;		line 202 in file "mcc_generated_files/i2c_host/src/mssp1.c"
  1686 ;; Parameters:    Size  Location     Type
  1687 ;;		None
  1688 ;; Auto vars:     Size  Location     Type
  1689 ;;		None
  1690 ;; Return value:  Size  Location     Type
  1691 ;;                  1    wreg      _Bool 
  1692 ;; Registers used:
  1693 ;;		wreg, status,2
  1694 ;; Tracked objects:
  1695 ;;		On entry : 0/0
  1696 ;;		On exit  : 0/0
  1697 ;;		Unchanged: 0/0
  1698 ;; Data sizes:     COMRAM   BANK0   BANK1   BANK2   BANK3   BANK4   BANK5   BANK6   BANK7   BANK8   BANK9  BANK10  BANK1
      +1  BANK12  BANK13  BANK14
  1699 ;;      Params:         0       0       0       0       0       0       0       0       0       0       0       0       
      +0       0       0       0
  1700 ;;      Locals:         1       0       0       0       0       0       0       0       0       0       0       0       
      +0       0       0       0
  1701 ;;      Temps:          0       0       0       0       0       0       0       0       0       0       0       0       
      +0       0       0       0
  1702 ;;      Totals:         1       0       0       0       0       0       0       0       0       0       0       0       
      +0       0       0       0
  1703 ;;Total ram usage:        1 bytes
  1704 ;; Hardware stack levels used: 1
  1705 ;; This function calls:
  1706 ;;		Nothing
  1707 ;; This function is called by:
  1708 ;;		_I2C1_Write
  1709 ;;		_I2C1_Read
  1710 ;;		_I2C1_WriteRead
  1711 ;;		_main
  1712 ;; This function uses a non-reentrant model
  1713 ;;
  1714                           
  1715                           	psect	text13
  1716  001516                     __ptext13:
  1717                           	callstack 0
  1718  001516                     _I2C1_IsBusy:
  1719                           	callstack 29
  1720  001516                     
  1721                           ;mcc_generated_files/i2c_host/src/mssp1.c: 204:     return i2c1Status.busy || SSP1STATbi
      +                          ts.S;
  1722  001516  0E01               	movlw	1
  1723  001518  6E1B               	movwf	_I2C1_IsBusy$793^0,c
  1724  00151A  5001               	movf	_i2c1Status^0,w,c	;volatile
  1725  00151C  A4D8               	btfss	status,2,c
  1726  00151E  EF93  F00A         	goto	u461
  1727  001522  EF95  F00A         	goto	u460
  1728  001526                     u461:
  1729  001526  EF9E  F00A         	goto	l150
  1730  00152A                     u460:
  1731  00152A  B694               	btfsc	148,3,c	;volatile
  1732  00152C  EF9A  F00A         	goto	u471
  1733  001530  EF9C  F00A         	goto	u470
  1734  001534                     u471:
  1735  001534  EF9E  F00A         	goto	l150
  1736  001538                     u470:
  1737  001538  0E00               	movlw	0
  1738  00153A  6E1B               	movwf	_I2C1_IsBusy$793^0,c
  1739  00153C                     l150:
  1740  00153C  501B               	movf	_I2C1_IsBusy$793^0,w,c
  1741  00153E  0012               	return		;funcret
  1742  001540                     __end_of_I2C1_IsBusy:
  1743                           	callstack 0
  1744                           
  1745 ;; *************** function _I2C1_Tasks *****************
  1746 ;; Defined at:
  1747 ;;		line 215 in file "mcc_generated_files/i2c_host/src/mssp1.c"
  1748 ;; Parameters:    Size  Location     Type
  1749 ;;		None
  1750 ;; Auto vars:     Size  Location     Type
  1751 ;;		None
  1752 ;; Return value:  Size  Location     Type
  1753 ;;                  1    wreg      void 
  1754 ;; Registers used:
  1755 ;;		wreg, fsr2l, fsr2h, status,2, status,0, pclath, tosl, tblptrl, tblptrh, tblptru, prodl, prodh, cstack
  1756 ;; Tracked objects:
  1757 ;;		On entry : 0/0
  1758 ;;		On exit  : 0/0
  1759 ;;		Unchanged: 0/0
  1760 ;; Data sizes:     COMRAM   BANK0   BANK1   BANK2   BANK3   BANK4   BANK5   BANK6   BANK7   BANK8   BANK9  BANK10  BANK1
      +1  BANK12  BANK13  BANK14
  1761 ;;      Params:         0       0       0       0       0       0       0       0       0       0       0       0       
      +0       0       0       0
  1762 ;;      Locals:         0       0       0       0       0       0       0       0       0       0       0       0       
      +0       0       0       0
  1763 ;;      Temps:          0       0       0       0       0       0       0       0       0       0       0       0       
      +0       0       0       0
  1764 ;;      Totals:         0       0       0       0       0       0       0       0       0       0       0       0       
      +0       0       0       0
  1765 ;;Total ram usage:        0 bytes
  1766 ;; Hardware stack levels used: 1
  1767 ;; Hardware stack levels required when called: 5
  1768 ;; This function calls:
  1769 ;;		_I2C1_ErrorEventHandler
  1770 ;;		_I2C1_EventHandler
  1771 ;; This function is called by:
  1772 ;;		_main
  1773 ;; This function uses a non-reentrant model
  1774 ;;
  1775                           
  1776                           	psect	text14
  1777  001480                     __ptext14:
  1778                           	callstack 0
  1779  001480                     _I2C1_Tasks:
  1780                           	callstack 25
  1781  001480                     
  1782                           ;mcc_generated_files/i2c_host/src/mssp1.c: 217:     if (PIR3bits.BCL1IF)
  1783  001480  010E               	movlb	14	; () banked
  1784  001482  A3C8               	btfss	200,1,b	;volatile
  1785  001484  EF46  F00A         	goto	u221
  1786  001488  EF48  F00A         	goto	u220
  1787  00148C                     u221:
  1788  00148C  EF4A  F00A         	goto	l1449
  1789  001490                     u220:
  1790  001490                     
  1791                           ; BSR set to: 14
  1792                           ;mcc_generated_files/i2c_host/src/mssp1.c: 218:     {;mcc_generated_files/i2c_host/src/m
      +                          ssp1.c: 219:         I2C1_ErrorEventHandler();
  1793  001490  EC93  F009         	call	_I2C1_ErrorEventHandler	;wreg free
  1794  001494                     l1449:
  1795                           
  1796                           ;mcc_generated_files/i2c_host/src/mssp1.c: 221:     if (PIR3bits.SSP1IF)
  1797  001494  010E               	movlb	14	; () banked
  1798  001496  A1C8               	btfss	200,0,b	;volatile
  1799  001498  EF50  F00A         	goto	u231
  1800  00149C  EF52  F00A         	goto	u230
  1801  0014A0                     u231:
  1802  0014A0  EF5F  F00A         	goto	l162
  1803  0014A4                     u230:
  1804  0014A4                     
  1805                           ; BSR set to: 14
  1806                           ;mcc_generated_files/i2c_host/src/mssp1.c: 222:     {;mcc_generated_files/i2c_host/src/m
      +                          ssp1.c: 223:         if (PIR3bits.BCL1IF)
  1807  0014A4  A3C8               	btfss	200,1,b	;volatile
  1808  0014A6  EF57  F00A         	goto	u241
  1809  0014AA  EF59  F00A         	goto	u240
  1810  0014AE                     u241:
  1811  0014AE  EF5D  F00A         	goto	l1455
  1812  0014B2                     u240:
  1813  0014B2                     
  1814                           ; BSR set to: 14
  1815                           ;mcc_generated_files/i2c_host/src/mssp1.c: 224:         {;mcc_generated_files/i2c_host/s
      +                          rc/mssp1.c: 225:             I2C1_ErrorEventHandler();
  1816  0014B2  EC93  F009         	call	_I2C1_ErrorEventHandler	;wreg free
  1817                           
  1818                           ;mcc_generated_files/i2c_host/src/mssp1.c: 226:         }
  1819  0014B6  EF5F  F00A         	goto	l162
  1820  0014BA                     l1455:
  1821                           
  1822                           ; BSR set to: 14
  1823                           ;mcc_generated_files/i2c_host/src/mssp1.c: 228:         {;mcc_generated_files/i2c_host/s
      +                          rc/mssp1.c: 229:             I2C1_EventHandler();
  1824  0014BA  EC08  F009         	call	_I2C1_EventHandler	;wreg free
  1825  0014BE                     l162:
  1826  0014BE  0012               	return		;funcret
  1827  0014C0                     __end_of_I2C1_Tasks:
  1828                           	callstack 0
  1829                           
  1830 ;; *************** function _I2C1_EventHandler *****************
  1831 ;; Defined at:
  1832 ;;		line 261 in file "mcc_generated_files/i2c_host/src/mssp1.c"
  1833 ;; Parameters:    Size  Location     Type
  1834 ;;		None
  1835 ;; Auto vars:     Size  Location     Type
  1836 ;;		None
  1837 ;; Return value:  Size  Location     Type
  1838 ;;                  1    wreg      void 
  1839 ;; Registers used:
  1840 ;;		wreg, fsr2l, fsr2h, status,2, status,0, pclath, tosl, tblptrl, tblptrh, tblptru, prodl, prodh, cstack
  1841 ;; Tracked objects:
  1842 ;;		On entry : 0/0
  1843 ;;		On exit  : 0/0
  1844 ;;		Unchanged: 0/0
  1845 ;; Data sizes:     COMRAM   BANK0   BANK1   BANK2   BANK3   BANK4   BANK5   BANK6   BANK7   BANK8   BANK9  BANK10  BANK1
      +1  BANK12  BANK13  BANK14
  1846 ;;      Params:         0       0       0       0       0       0       0       0       0       0       0       0       
      +0       0       0       0
  1847 ;;      Locals:         0       0       0       0       0       0       0       0       0       0       0       0       
      +0       0       0       0
  1848 ;;      Temps:          0       0       0       0       0       0       0       0       0       0       0       0       
      +0       0       0       0
  1849 ;;      Totals:         0       0       0       0       0       0       0       0       0       0       0       0       
      +0       0       0       0
  1850 ;;Total ram usage:        0 bytes
  1851 ;; Hardware stack levels used: 1
  1852 ;; Hardware stack levels required when called: 4
  1853 ;; This function calls:
  1854 ;;		_I2C1_EVENT_ERROR
  1855 ;;		_I2C1_EVENT_IDLE
  1856 ;;		_I2C1_EVENT_NACK
  1857 ;;		_I2C1_EVENT_RESET
  1858 ;;		_I2C1_EVENT_RX
  1859 ;;		_I2C1_EVENT_SEND_RD_ADDR
  1860 ;;		_I2C1_EVENT_SEND_WR_ADDR
  1861 ;;		_I2C1_EVENT_STOP
  1862 ;;		_I2C1_EVENT_TX
  1863 ;;		_I2C1_InterruptClear
  1864 ;;		_I2C1_IsAddr
  1865 ;;		_I2C1_IsData
  1866 ;;		_I2C1_IsNack
  1867 ;; This function is called by:
  1868 ;;		_I2C1_Tasks
  1869 ;; This function uses a non-reentrant model
  1870 ;;
  1871                           
  1872                           	psect	text15
  1873  001210                     __ptext15:
  1874                           	callstack 0
  1875  001210                     _I2C1_EventHandler:
  1876                           	callstack 25
  1877  001210                     
  1878                           ;mcc_generated_files/i2c_host/src/mssp1.c: 263:     I2C1_InterruptClear();
  1879  001210  EC59  F00B         	call	_I2C1_InterruptClear	;wreg free
  1880  001214                     
  1881                           ;mcc_generated_files/i2c_host/src/mssp1.c: 264:     if (I2C1_IsAddr() && I2C1_IsNack())
  1882  001214  ECE9  F00A         	call	_I2C1_IsAddr	;wreg free
  1883  001218  0900               	iorlw	0
  1884  00121A  B4D8               	btfsc	status,2,c
  1885  00121C  EF12  F009         	goto	u161
  1886  001220  EF14  F009         	goto	u160
  1887  001224                     u161:
  1888  001224  EF24  F009         	goto	l1365
  1889  001228                     u160:
  1890  001228  ECD5  F00A         	call	_I2C1_IsNack	;wreg free
  1891  00122C  0900               	iorlw	0
  1892  00122E  B4D8               	btfsc	status,2,c
  1893  001230  EF1C  F009         	goto	u171
  1894  001234  EF1E  F009         	goto	u170
  1895  001238                     u171:
  1896  001238  EF24  F009         	goto	l1365
  1897  00123C                     u170:
  1898  00123C                     
  1899                           ;mcc_generated_files/i2c_host/src/mssp1.c: 265:     {;mcc_generated_files/i2c_host/src/m
      +                          ssp1.c: 266:         i2c1Status.state = I2C_STATE_NACK;
  1900  00123C  0E05               	movlw	5
  1901  00123E  6E0E               	movwf	(_i2c1Status+13)^0,c	;volatile
  1902                           
  1903                           ;mcc_generated_files/i2c_host/src/mssp1.c: 267:         i2c1Status.errorState = I2C_ERRO
      +                          R_ADDR_NACK;
  1904  001240  0E01               	movlw	1
  1905  001242  6E0D               	movwf	(_i2c1Status+12)^0,c	;volatile
  1906                           
  1907                           ;mcc_generated_files/i2c_host/src/mssp1.c: 268:     }
  1908  001244  EF3C  F009         	goto	l1371
  1909  001248                     l1365:
  1910  001248  ECDF  F00A         	call	_I2C1_IsData	;wreg free
  1911  00124C  0900               	iorlw	0
  1912  00124E  B4D8               	btfsc	status,2,c
  1913  001250  EF2C  F009         	goto	u181
  1914  001254  EF2E  F009         	goto	u180
  1915  001258                     u181:
  1916  001258  EF3C  F009         	goto	l1371
  1917  00125C                     u180:
  1918  00125C  ECD5  F00A         	call	_I2C1_IsNack	;wreg free
  1919  001260  0900               	iorlw	0
  1920  001262  B4D8               	btfsc	status,2,c
  1921  001264  EF36  F009         	goto	u191
  1922  001268  EF38  F009         	goto	u190
  1923  00126C                     u191:
  1924  00126C  EF3C  F009         	goto	l1371
  1925  001270                     u190:
  1926  001270                     
  1927                           ;mcc_generated_files/i2c_host/src/mssp1.c: 270:     {;mcc_generated_files/i2c_host/src/m
      +                          ssp1.c: 271:         i2c1Status.state = I2C_STATE_NACK;
  1928  001270  0E05               	movlw	5
  1929  001272  6E0E               	movwf	(_i2c1Status+13)^0,c	;volatile
  1930                           
  1931                           ;mcc_generated_files/i2c_host/src/mssp1.c: 272:         i2c1Status.errorState = I2C_ERRO
      +                          R_DATA_NACK;
  1932  001274  0E02               	movlw	2
  1933  001276  6E0D               	movwf	(_i2c1Status+12)^0,c	;volatile
  1934  001278                     l1371:
  1935                           
  1936                           ;mcc_generated_files/i2c_host/src/mssp1.c: 274:     i2c1Status.state = i2c1_eventTable[i
      +                          2c1Status.state]();
  1937  001278  500E               	movf	(_i2c1Status+13)^0,w,c	;volatile
  1938  00127A  0D03               	mullw	3
  1939  00127C  0E01               	movlw	low _i2c1_eventTable
  1940  00127E  24F3               	addwf	243,w,c
  1941  001280  6EF6               	movwf	tblptrl,c
  1942  001282  0E0F               	movlw	high _i2c1_eventTable
  1943  001284  20F4               	addwfc	244,w,c
  1944  001286  6EF7               	movwf	tblptrh,c
  1945  001288                     	if	1	;There are 3 active tblptr bytes
  1946  001288  6AF8               	clrf	tblptru,c
  1947  00128A  0E00               	movlw	low (__mediumconst shr (0+16))
  1948  00128C  22F8               	addwfc	tblptru,f,c
  1949  00128E                     	endif
  1950  00128E  D802               	call	u208
  1951  001290  EF57  F009         	goto	u209
  1952  001294                     u208:
  1953  001294  0005               	push	
  1954  001296  6EFA               	movwf	pclath,c
  1955  001298  0009               	tblrd		*+
  1956  00129A  50F5               	movf	tablat,w,c
  1957  00129C  6EFD               	movwf	tosl,c
  1958  00129E  0009               	tblrd		*+
  1959  0012A0  50F5               	movf	tablat,w,c
  1960  0012A2  6EFE               	movwf	tosh,c
  1961  0012A4  0009               	tblrd		*+
  1962  0012A6  50F5               	movf	tablat,w,c
  1963  0012A8  6EFF               	movwf	tosu,c
  1964  0012AA  50FA               	movf	pclath,w,c
  1965  0012AC  0012               	return		;indir
  1966  0012AE                     u209:
  1967  0012AE  6E0E               	movwf	(_i2c1Status+13)^0,c	;volatile
  1968  0012B0  0012               	return		;funcret
  1969  0012B2                     __end_of_I2C1_EventHandler:
  1970                           	callstack 0
  1971                           
  1972 ;; *************** function _I2C1_IsNack *****************
  1973 ;; Defined at:
  1974 ;;		line 452 in file "mcc_generated_files/i2c_host/src/mssp1.c"
  1975 ;; Parameters:    Size  Location     Type
  1976 ;;		None
  1977 ;; Auto vars:     Size  Location     Type
  1978 ;;		None
  1979 ;; Return value:  Size  Location     Type
  1980 ;;                  1    wreg      _Bool 
  1981 ;; Registers used:
  1982 ;;		wreg
  1983 ;; Tracked objects:
  1984 ;;		On entry : 0/0
  1985 ;;		On exit  : 0/0
  1986 ;;		Unchanged: 0/0
  1987 ;; Data sizes:     COMRAM   BANK0   BANK1   BANK2   BANK3   BANK4   BANK5   BANK6   BANK7   BANK8   BANK9  BANK10  BANK1
      +1  BANK12  BANK13  BANK14
  1988 ;;      Params:         0       0       0       0       0       0       0       0       0       0       0       0       
      +0       0       0       0
  1989 ;;      Locals:         0       0       0       0       0       0       0       0       0       0       0       0       
      +0       0       0       0
  1990 ;;      Temps:          0       0       0       0       0       0       0       0       0       0       0       0       
      +0       0       0       0
  1991 ;;      Totals:         0       0       0       0       0       0       0       0       0       0       0       0       
      +0       0       0       0
  1992 ;;Total ram usage:        0 bytes
  1993 ;; Hardware stack levels used: 1
  1994 ;; This function calls:
  1995 ;;		Nothing
  1996 ;; This function is called by:
  1997 ;;		_I2C1_EventHandler
  1998 ;; This function uses a non-reentrant model
  1999 ;;
  2000                           
  2001                           	psect	text16
  2002  0015AA                     __ptext16:
  2003                           	callstack 0
  2004  0015AA                     _I2C1_IsNack:
  2005                           	callstack 28
  2006  0015AA                     
  2007                           ;mcc_generated_files/i2c_host/src/mssp1.c: 454:     return SSP1CON2bits.ACKSTAT;
  2008  0015AA  BC96               	btfsc	150,6,c	;volatile
  2009  0015AC  EFDA  F00A         	goto	u51
  2010  0015B0  EFDD  F00A         	goto	u50
  2011  0015B4                     u51:
  2012  0015B4  0E01               	movlw	1
  2013  0015B6  EFDE  F00A         	goto	u56
  2014  0015BA                     u50:
  2015  0015BA  0E00               	movlw	0
  2016  0015BC                     u56:
  2017  0015BC  0012               	return		;funcret
  2018  0015BE                     __end_of_I2C1_IsNack:
  2019                           	callstack 0
  2020                           
  2021 ;; *************** function _I2C1_IsData *****************
  2022 ;; Defined at:
  2023 ;;		line 457 in file "mcc_generated_files/i2c_host/src/mssp1.c"
  2024 ;; Parameters:    Size  Location     Type
  2025 ;;		None
  2026 ;; Auto vars:     Size  Location     Type
  2027 ;;		None
  2028 ;; Return value:  Size  Location     Type
  2029 ;;                  1    wreg      _Bool 
  2030 ;; Registers used:
  2031 ;;		wreg
  2032 ;; Tracked objects:
  2033 ;;		On entry : 0/0
  2034 ;;		On exit  : 0/0
  2035 ;;		Unchanged: 0/0
  2036 ;; Data sizes:     COMRAM   BANK0   BANK1   BANK2   BANK3   BANK4   BANK5   BANK6   BANK7   BANK8   BANK9  BANK10  BANK1
      +1  BANK12  BANK13  BANK14
  2037 ;;      Params:         0       0       0       0       0       0       0       0       0       0       0       0       
      +0       0       0       0
  2038 ;;      Locals:         0       0       0       0       0       0       0       0       0       0       0       0       
      +0       0       0       0
  2039 ;;      Temps:          0       0       0       0       0       0       0       0       0       0       0       0       
      +0       0       0       0
  2040 ;;      Totals:         0       0       0       0       0       0       0       0       0       0       0       0       
      +0       0       0       0
  2041 ;;Total ram usage:        0 bytes
  2042 ;; Hardware stack levels used: 1
  2043 ;; This function calls:
  2044 ;;		Nothing
  2045 ;; This function is called by:
  2046 ;;		_I2C1_EventHandler
  2047 ;; This function uses a non-reentrant model
  2048 ;;
  2049                           
  2050                           	psect	text17
  2051  0015BE                     __ptext17:
  2052                           	callstack 0
  2053  0015BE                     _I2C1_IsData:
  2054                           	callstack 28
  2055  0015BE                     
  2056                           ;mcc_generated_files/i2c_host/src/mssp1.c: 459:     return (SSP1STATbits.D_nA);
  2057  0015BE  BA94               	btfsc	148,5,c	;volatile
  2058  0015C0  EFE4  F00A         	goto	u61
  2059  0015C4  EFE7  F00A         	goto	u60
  2060  0015C8                     u61:
  2061  0015C8  0E01               	movlw	1
  2062  0015CA  EFE8  F00A         	goto	u66
  2063  0015CE                     u60:
  2064  0015CE  0E00               	movlw	0
  2065  0015D0                     u66:
  2066  0015D0  0012               	return		;funcret
  2067  0015D2                     __end_of_I2C1_IsData:
  2068                           	callstack 0
  2069                           
  2070 ;; *************** function _I2C1_IsAddr *****************
  2071 ;; Defined at:
  2072 ;;		line 462 in file "mcc_generated_files/i2c_host/src/mssp1.c"
  2073 ;; Parameters:    Size  Location     Type
  2074 ;;		None
  2075 ;; Auto vars:     Size  Location     Type
  2076 ;;		None
  2077 ;; Return value:  Size  Location     Type
  2078 ;;                  1    wreg      _Bool 
  2079 ;; Registers used:
  2080 ;;		wreg
  2081 ;; Tracked objects:
  2082 ;;		On entry : 0/0
  2083 ;;		On exit  : 0/0
  2084 ;;		Unchanged: 0/0
  2085 ;; Data sizes:     COMRAM   BANK0   BANK1   BANK2   BANK3   BANK4   BANK5   BANK6   BANK7   BANK8   BANK9  BANK10  BANK1
      +1  BANK12  BANK13  BANK14
  2086 ;;      Params:         0       0       0       0       0       0       0       0       0       0       0       0       
      +0       0       0       0
  2087 ;;      Locals:         0       0       0       0       0       0       0       0       0       0       0       0       
      +0       0       0       0
  2088 ;;      Temps:          0       0       0       0       0       0       0       0       0       0       0       0       
      +0       0       0       0
  2089 ;;      Totals:         0       0       0       0       0       0       0       0       0       0       0       0       
      +0       0       0       0
  2090 ;;Total ram usage:        0 bytes
  2091 ;; Hardware stack levels used: 1
  2092 ;; This function calls:
  2093 ;;		Nothing
  2094 ;; This function is called by:
  2095 ;;		_I2C1_EventHandler
  2096 ;; This function uses a non-reentrant model
  2097 ;;
  2098                           
  2099                           	psect	text18
  2100  0015D2                     __ptext18:
  2101                           	callstack 0
  2102  0015D2                     _I2C1_IsAddr:
  2103                           	callstack 28
  2104  0015D2                     
  2105                           ;mcc_generated_files/i2c_host/src/mssp1.c: 464:     return !(SSP1STATbits.D_nA);
  2106  0015D2  AA94               	btfss	148,5,c	;volatile
  2107  0015D4  EFEE  F00A         	goto	u31
  2108  0015D8  EFF1  F00A         	goto	u30
  2109  0015DC                     u31:
  2110  0015DC  0E01               	movlw	1
  2111  0015DE  EFF2  F00A         	goto	u40
  2112  0015E2                     u30:
  2113  0015E2  0E00               	movlw	0
  2114  0015E4                     u40:
  2115  0015E4  0012               	return		;funcret
  2116  0015E6                     __end_of_I2C1_IsAddr:
  2117                           	callstack 0
  2118                           
  2119 ;; *************** function _I2C1_ErrorEventHandler *****************
  2120 ;; Defined at:
  2121 ;;		line 277 in file "mcc_generated_files/i2c_host/src/mssp1.c"
  2122 ;; Parameters:    Size  Location     Type
  2123 ;;		None
  2124 ;; Auto vars:     Size  Location     Type
  2125 ;;		None
  2126 ;; Return value:  Size  Location     Type
  2127 ;;                  1    wreg      void 
  2128 ;; Registers used:
  2129 ;;		wreg, fsr2l, fsr2h, status,2, status,0, pclath, tosl, tblptrl, tblptrh, tblptru, prodl, prodh, cstack
  2130 ;; Tracked objects:
  2131 ;;		On entry : 0/0
  2132 ;;		On exit  : 0/0
  2133 ;;		Unchanged: 0/0
  2134 ;; Data sizes:     COMRAM   BANK0   BANK1   BANK2   BANK3   BANK4   BANK5   BANK6   BANK7   BANK8   BANK9  BANK10  BANK1
      +1  BANK12  BANK13  BANK14
  2135 ;;      Params:         0       0       0       0       0       0       0       0       0       0       0       0       
      +0       0       0       0
  2136 ;;      Locals:         0       0       0       0       0       0       0       0       0       0       0       0       
      +0       0       0       0
  2137 ;;      Temps:          0       0       0       0       0       0       0       0       0       0       0       0       
      +0       0       0       0
  2138 ;;      Totals:         0       0       0       0       0       0       0       0       0       0       0       0       
      +0       0       0       0
  2139 ;;Total ram usage:        0 bytes
  2140 ;; Hardware stack levels used: 1
  2141 ;; Hardware stack levels required when called: 4
  2142 ;; This function calls:
  2143 ;;		Absolute function
  2144 ;;		_I2C1_DefaultCallback
  2145 ;;		_I2C1_EVENT_ERROR
  2146 ;;		_I2C1_EVENT_IDLE
  2147 ;;		_I2C1_EVENT_NACK
  2148 ;;		_I2C1_EVENT_RESET
  2149 ;;		_I2C1_EVENT_RX
  2150 ;;		_I2C1_EVENT_SEND_RD_ADDR
  2151 ;;		_I2C1_EVENT_SEND_WR_ADDR
  2152 ;;		_I2C1_EVENT_STOP
  2153 ;;		_I2C1_EVENT_TX
  2154 ;;		_I2C1_ErrorInterruptClear
  2155 ;; This function is called by:
  2156 ;;		_I2C1_Tasks
  2157 ;; This function uses a non-reentrant model
  2158 ;;
  2159                           
  2160                           	psect	text19
  2161  001326                     __ptext19:
  2162                           	callstack 0
  2163  001326                     _I2C1_ErrorEventHandler:
  2164                           	callstack 25
  2165  001326                     
  2166                           ;mcc_generated_files/i2c_host/src/mssp1.c: 279:     i2c1Status.state = I2C_STATE_ERROR;
  2167  001326  0E06               	movlw	6
  2168  001328  6E0E               	movwf	(_i2c1Status+13)^0,c	;volatile
  2169                           
  2170                           ;mcc_generated_files/i2c_host/src/mssp1.c: 280:     i2c1Status.errorState = I2C_ERROR_BU
      +                          S_COLLISION;
  2171  00132A  0E03               	movlw	3
  2172  00132C  6E0D               	movwf	(_i2c1Status+12)^0,c	;volatile
  2173  00132E                     
  2174                           ;mcc_generated_files/i2c_host/src/mssp1.c: 281:     I2C1_ErrorInterruptClear();
  2175  00132E  EC5C  F00B         	call	_I2C1_ErrorInterruptClear	;wreg free
  2176  001332                     
  2177                           ;mcc_generated_files/i2c_host/src/mssp1.c: 282:     i2c1Status.state = i2c1_eventTable[i
      +                          2c1Status.state]();
  2178  001332  500E               	movf	(_i2c1Status+13)^0,w,c	;volatile
  2179  001334  0D03               	mullw	3
  2180  001336  0E01               	movlw	low _i2c1_eventTable
  2181  001338  24F3               	addwf	243,w,c
  2182  00133A  6EF6               	movwf	tblptrl,c
  2183  00133C  0E0F               	movlw	high _i2c1_eventTable
  2184  00133E  20F4               	addwfc	244,w,c
  2185  001340  6EF7               	movwf	tblptrh,c
  2186  001342                     	if	1	;There are 3 active tblptr bytes
  2187  001342  6AF8               	clrf	tblptru,c
  2188  001344  0E00               	movlw	low (__mediumconst shr (0+16))
  2189  001346  22F8               	addwfc	tblptru,f,c
  2190  001348                     	endif
  2191  001348  D802               	call	u148
  2192  00134A  EFB4  F009         	goto	u149
  2193  00134E                     u148:
  2194  00134E  0005               	push	
  2195  001350  6EFA               	movwf	pclath,c
  2196  001352  0009               	tblrd		*+
  2197  001354  50F5               	movf	tablat,w,c
  2198  001356  6EFD               	movwf	tosl,c
  2199  001358  0009               	tblrd		*+
  2200  00135A  50F5               	movf	tablat,w,c
  2201  00135C  6EFE               	movwf	tosh,c
  2202  00135E  0009               	tblrd		*+
  2203  001360  50F5               	movf	tablat,w,c
  2204  001362  6EFF               	movwf	tosu,c
  2205  001364  50FA               	movf	pclath,w,c
  2206  001366  0012               	return		;indir
  2207  001368                     u149:
  2208  001368  6E0E               	movwf	(_i2c1Status+13)^0,c	;volatile
  2209  00136A                     
  2210                           ;mcc_generated_files/i2c_host/src/mssp1.c: 283:     I2C1_Callback();
  2211  00136A  D802               	call	u158
  2212  00136C  EFC2  F009         	goto	u159
  2213  001370                     u158:
  2214  001370  0005               	push	
  2215  001372  6EFA               	movwf	pclath,c
  2216  001374  5018               	movf	_I2C1_Callback^0,w,c
  2217  001376  6EFD               	movwf	tosl,c
  2218  001378  5019               	movf	(_I2C1_Callback+1)^0,w,c
  2219  00137A  6EFE               	movwf	tosh,c
  2220  00137C  501A               	movf	(_I2C1_Callback+2)^0,w,c
  2221  00137E  6EFF               	movwf	tosu,c
  2222  001380  50FA               	movf	pclath,w,c
  2223  001382  0012               	return		;indir
  2224  001384                     u159:
  2225  001384  0012               	return		;funcret
  2226  001386                     __end_of_I2C1_ErrorEventHandler:
  2227                           	callstack 0
  2228                           
  2229 ;; *************** function _I2C1_EVENT_RESET *****************
  2230 ;; Defined at:
  2231 ;;		line 389 in file "mcc_generated_files/i2c_host/src/mssp1.c"
  2232 ;; Parameters:    Size  Location     Type
  2233 ;;		None
  2234 ;; Auto vars:     Size  Location     Type
  2235 ;;		None
  2236 ;; Return value:  Size  Location     Type
  2237 ;;                  1    wreg      enum E13004
  2238 ;; Registers used:
  2239 ;;		wreg, status,2, cstack
  2240 ;; Tracked objects:
  2241 ;;		On entry : 0/0
  2242 ;;		On exit  : 0/0
  2243 ;;		Unchanged: 0/0
  2244 ;; Data sizes:     COMRAM   BANK0   BANK1   BANK2   BANK3   BANK4   BANK5   BANK6   BANK7   BANK8   BANK9  BANK10  BANK1
      +1  BANK12  BANK13  BANK14
  2245 ;;      Params:         0       0       0       0       0       0       0       0       0       0       0       0       
      +0       0       0       0
  2246 ;;      Locals:         0       0       0       0       0       0       0       0       0       0       0       0       
      +0       0       0       0
  2247 ;;      Temps:          0       0       0       0       0       0       0       0       0       0       0       0       
      +0       0       0       0
  2248 ;;      Totals:         0       0       0       0       0       0       0       0       0       0       0       0       
      +0       0       0       0
  2249 ;;Total ram usage:        0 bytes
  2250 ;; Hardware stack levels used: 1
  2251 ;; Hardware stack levels required when called: 1
  2252 ;; This function calls:
  2253 ;;		_I2C1_BusReset
  2254 ;; This function is called by:
  2255 ;;		_I2C1_EVENT_ERROR
  2256 ;;		_I2C1_ErrorEventHandler
  2257 ;;		_I2C1_EventHandler
  2258 ;; This function uses a non-reentrant model
  2259 ;;
  2260                           
  2261                           	psect	text20
  2262  001636                     __ptext20:
  2263                           	callstack 0
  2264  001636                     _I2C1_EVENT_RESET:
  2265                           	callstack 27
  2266  001636                     
  2267                           ;mcc_generated_files/i2c_host/src/mssp1.c: 391:     I2C1_BusReset();
  2268  001636  EC5F  F00B         	call	_I2C1_BusReset	;wreg free
  2269  00163A                     
  2270                           ;mcc_generated_files/i2c_host/src/mssp1.c: 392:     i2c1Status.busy = 0;
  2271  00163A  0E00               	movlw	0
  2272  00163C  6E01               	movwf	_i2c1Status^0,c	;volatile
  2273  00163E                     
  2274                           ;mcc_generated_files/i2c_host/src/mssp1.c: 393:     return I2C_STATE_IDLE;
  2275  00163E  0E00               	movlw	0
  2276  001640  0012               	return		;funcret
  2277  001642                     __end_of_I2C1_EVENT_RESET:
  2278                           	callstack 0
  2279                           
  2280 ;; *************** function _I2C1_EVENT_STOP *****************
  2281 ;; Defined at:
  2282 ;;		line 382 in file "mcc_generated_files/i2c_host/src/mssp1.c"
  2283 ;; Parameters:    Size  Location     Type
  2284 ;;		None
  2285 ;; Auto vars:     Size  Location     Type
  2286 ;;		None
  2287 ;; Return value:  Size  Location     Type
  2288 ;;                  1    wreg      enum E13004
  2289 ;; Registers used:
  2290 ;;		wreg, status,2, status,0, cstack
  2291 ;; Tracked objects:
  2292 ;;		On entry : 0/0
  2293 ;;		On exit  : 0/0
  2294 ;;		Unchanged: 0/0
  2295 ;; Data sizes:     COMRAM   BANK0   BANK1   BANK2   BANK3   BANK4   BANK5   BANK6   BANK7   BANK8   BANK9  BANK10  BANK1
      +1  BANK12  BANK13  BANK14
  2296 ;;      Params:         0       0       0       0       0       0       0       0       0       0       0       0       
      +0       0       0       0
  2297 ;;      Locals:         0       0       0       0       0       0       0       0       0       0       0       0       
      +0       0       0       0
  2298 ;;      Temps:          0       0       0       0       0       0       0       0       0       0       0       0       
      +0       0       0       0
  2299 ;;      Totals:         0       0       0       0       0       0       0       0       0       0       0       0       
      +0       0       0       0
  2300 ;;Total ram usage:        0 bytes
  2301 ;; Hardware stack levels used: 1
  2302 ;; Hardware stack levels required when called: 2
  2303 ;; This function calls:
  2304 ;;		_I2C1_Close
  2305 ;;		_I2C1_StopSend
  2306 ;; This function is called by:
  2307 ;;		_I2C1_EVENT_TX
  2308 ;;		_I2C1_EVENT_NACK
  2309 ;;		_I2C1_ErrorEventHandler
  2310 ;;		_I2C1_EventHandler
  2311 ;; This function uses a non-reentrant model
  2312 ;;
  2313                           
  2314                           	psect	text21
  2315  001642                     __ptext21:
  2316                           	callstack 0
  2317  001642                     _I2C1_EVENT_STOP:
  2318                           	callstack 25
  2319  001642                     
  2320                           ;mcc_generated_files/i2c_host/src/mssp1.c: 384:     I2C1_StopSend();
  2321  001642  EC6C  F00B         	call	_I2C1_StopSend	;wreg free
  2322  001646                     
  2323                           ;mcc_generated_files/i2c_host/src/mssp1.c: 385:     I2C1_Close();
  2324  001646  EC60  F00A         	call	_I2C1_Close	;wreg free
  2325  00164A                     
  2326                           ;mcc_generated_files/i2c_host/src/mssp1.c: 386:     return I2C_STATE_IDLE;
  2327  00164A  0E00               	movlw	0
  2328  00164C  0012               	return		;funcret
  2329  00164E                     __end_of_I2C1_EVENT_STOP:
  2330                           	callstack 0
  2331                           
  2332 ;; *************** function _I2C1_EVENT_ERROR *****************
  2333 ;; Defined at:
  2334 ;;		line 375 in file "mcc_generated_files/i2c_host/src/mssp1.c"
  2335 ;; Parameters:    Size  Location     Type
  2336 ;;		None
  2337 ;; Auto vars:     Size  Location     Type
  2338 ;;  retEventStat    1    0[COMRAM] enum E13004
  2339 ;; Return value:  Size  Location     Type
  2340 ;;                  1    wreg      enum E13004
  2341 ;; Registers used:
  2342 ;;		wreg, status,2, cstack
  2343 ;; Tracked objects:
  2344 ;;		On entry : 0/0
  2345 ;;		On exit  : 0/0
  2346 ;;		Unchanged: 0/0
  2347 ;; Data sizes:     COMRAM   BANK0   BANK1   BANK2   BANK3   BANK4   BANK5   BANK6   BANK7   BANK8   BANK9  BANK10  BANK1
      +1  BANK12  BANK13  BANK14
  2348 ;;      Params:         0       0       0       0       0       0       0       0       0       0       0       0       
      +0       0       0       0
  2349 ;;      Locals:         1       0       0       0       0       0       0       0       0       0       0       0       
      +0       0       0       0
  2350 ;;      Temps:          0       0       0       0       0       0       0       0       0       0       0       0       
      +0       0       0       0
  2351 ;;      Totals:         1       0       0       0       0       0       0       0       0       0       0       0       
      +0       0       0       0
  2352 ;;Total ram usage:        1 bytes
  2353 ;; Hardware stack levels used: 1
  2354 ;; Hardware stack levels required when called: 2
  2355 ;; This function calls:
  2356 ;;		_I2C1_EVENT_RESET
  2357 ;; This function is called by:
  2358 ;;		_I2C1_ErrorEventHandler
  2359 ;;		_I2C1_EventHandler
  2360 ;; This function uses a non-reentrant model
  2361 ;;
  2362                           
  2363                           	psect	text22
  2364  00167C                     __ptext22:
  2365                           	callstack 0
  2366  00167C                     _I2C1_EVENT_ERROR:
  2367                           	callstack 26
  2368  00167C                     
  2369                           ;mcc_generated_files/i2c_host/src/mssp1.c: 378:     retEventState = I2C1_EVENT_RESET();
  2370  00167C  EC1B  F00B         	call	_I2C1_EVENT_RESET	;wreg free
  2371  001680  6E1B               	movwf	I2C1_EVENT_ERROR@retEventState^0,c
  2372  001682                     
  2373                           ;mcc_generated_files/i2c_host/src/mssp1.c: 379:     return retEventState;
  2374  001682  501B               	movf	I2C1_EVENT_ERROR@retEventState^0,w,c
  2375  001684  0012               	return		;funcret
  2376  001686                     __end_of_I2C1_EVENT_ERROR:
  2377                           	callstack 0
  2378                           
  2379 ;; *************** function _I2C1_EVENT_NACK *****************
  2380 ;; Defined at:
  2381 ;;		line 368 in file "mcc_generated_files/i2c_host/src/mssp1.c"
  2382 ;; Parameters:    Size  Location     Type
  2383 ;;		None
  2384 ;; Auto vars:     Size  Location     Type
  2385 ;;  retEventStat    1    0[COMRAM] enum E13004
  2386 ;; Return value:  Size  Location     Type
  2387 ;;                  1    wreg      enum E13004
  2388 ;; Registers used:
  2389 ;;		wreg, status,2, status,0, cstack
  2390 ;; Tracked objects:
  2391 ;;		On entry : 0/0
  2392 ;;		On exit  : 0/0
  2393 ;;		Unchanged: 0/0
  2394 ;; Data sizes:     COMRAM   BANK0   BANK1   BANK2   BANK3   BANK4   BANK5   BANK6   BANK7   BANK8   BANK9  BANK10  BANK1
      +1  BANK12  BANK13  BANK14
  2395 ;;      Params:         0       0       0       0       0       0       0       0       0       0       0       0       
      +0       0       0       0
  2396 ;;      Locals:         1       0       0       0       0       0       0       0       0       0       0       0       
      +0       0       0       0
  2397 ;;      Temps:          0       0       0       0       0       0       0       0       0       0       0       0       
      +0       0       0       0
  2398 ;;      Totals:         1       0       0       0       0       0       0       0       0       0       0       0       
      +0       0       0       0
  2399 ;;Total ram usage:        1 bytes
  2400 ;; Hardware stack levels used: 1
  2401 ;; Hardware stack levels required when called: 3
  2402 ;; This function calls:
  2403 ;;		_I2C1_EVENT_STOP
  2404 ;; This function is called by:
  2405 ;;		_I2C1_ErrorEventHandler
  2406 ;;		_I2C1_EventHandler
  2407 ;; This function uses a non-reentrant model
  2408 ;;
  2409                           
  2410                           	psect	text23
  2411  001686                     __ptext23:
  2412                           	callstack 0
  2413  001686                     _I2C1_EVENT_NACK:
  2414                           	callstack 25
  2415  001686                     
  2416                           ;mcc_generated_files/i2c_host/src/mssp1.c: 371:     retEventState = I2C1_EVENT_STOP();
  2417  001686  EC21  F00B         	call	_I2C1_EVENT_STOP	;wreg free
  2418  00168A  6E1B               	movwf	I2C1_EVENT_NACK@retEventState^0,c
  2419  00168C                     
  2420                           ;mcc_generated_files/i2c_host/src/mssp1.c: 372:     return retEventState;
  2421  00168C  501B               	movf	I2C1_EVENT_NACK@retEventState^0,w,c
  2422  00168E  0012               	return		;funcret
  2423  001690                     __end_of_I2C1_EVENT_NACK:
  2424                           	callstack 0
  2425                           
  2426 ;; *************** function _I2C1_EVENT_RX *****************
  2427 ;; Defined at:
  2428 ;;		line 336 in file "mcc_generated_files/i2c_host/src/mssp1.c"
  2429 ;; Parameters:    Size  Location     Type
  2430 ;;		None
  2431 ;; Auto vars:     Size  Location     Type
  2432 ;;  retEventStat    1    0[COMRAM] enum E13004
  2433 ;; Return value:  Size  Location     Type
  2434 ;;                  1    wreg      enum E13004
  2435 ;; Registers used:
  2436 ;;		wreg, fsr2l, fsr2h, status,2, status,0, cstack
  2437 ;; Tracked objects:
  2438 ;;		On entry : 0/0
  2439 ;;		On exit  : 0/0
  2440 ;;		Unchanged: 0/0
  2441 ;; Data sizes:     COMRAM   BANK0   BANK1   BANK2   BANK3   BANK4   BANK5   BANK6   BANK7   BANK8   BANK9  BANK10  BANK1
      +1  BANK12  BANK13  BANK14
  2442 ;;      Params:         0       0       0       0       0       0       0       0       0       0       0       0       
      +0       0       0       0
  2443 ;;      Locals:         1       0       0       0       0       0       0       0       0       0       0       0       
      +0       0       0       0
  2444 ;;      Temps:          0       0       0       0       0       0       0       0       0       0       0       0       
      +0       0       0       0
  2445 ;;      Totals:         1       0       0       0       0       0       0       0       0       0       0       0       
      +0       0       0       0
  2446 ;;Total ram usage:        1 bytes
  2447 ;; Hardware stack levels used: 1
  2448 ;; Hardware stack levels required when called: 1
  2449 ;; This function calls:
  2450 ;;		_I2C1_AckSend
  2451 ;;		_I2C1_DataReceive
  2452 ;;		_I2C1_IsRxBufFull
  2453 ;;		_I2C1_NackSend
  2454 ;;		_I2C1_ReceiveEnable
  2455 ;;		_I2C1_RestartDisable
  2456 ;; This function is called by:
  2457 ;;		_I2C1_ErrorEventHandler
  2458 ;;		_I2C1_EventHandler
  2459 ;; This function uses a non-reentrant model
  2460 ;;
  2461                           
  2462                           	psect	text24
  2463  0012B2                     __ptext24:
  2464                           	callstack 0
  2465  0012B2                     _I2C1_EVENT_RX:
  2466                           	callstack 27
  2467  0012B2                     
  2468                           ;mcc_generated_files/i2c_host/src/mssp1.c: 338:     i2c_host_event_states_t retEventStat
      +                          e = I2C_STATE_RX;
  2469  0012B2  0E04               	movlw	4
  2470  0012B4  6E1B               	movwf	I2C1_EVENT_RX@retEventState^0,c
  2471  0012B6                     
  2472                           ;mcc_generated_files/i2c_host/src/mssp1.c: 340:     if (I2C1_IsRxBufFull())
  2473  0012B6  ECF3  F00A         	call	_I2C1_IsRxBufFull	;wreg free
  2474  0012BA  0900               	iorlw	0
  2475  0012BC  B4D8               	btfsc	status,2,c
  2476  0012BE  EF63  F009         	goto	u91
  2477  0012C2  EF65  F009         	goto	u90
  2478  0012C6                     u91:
  2479  0012C6  EF8F  F009         	goto	l1301
  2480  0012CA                     u90:
  2481  0012CA                     
  2482                           ;mcc_generated_files/i2c_host/src/mssp1.c: 341:     {;mcc_generated_files/i2c_host/src/m
      +                          ssp1.c: 342:         if (i2c1Status.readLength > 0)
  2483  0012CA  500A               	movf	(_i2c1Status+9)^0,w,c	;volatile
  2484  0012CC  100B               	iorwf	(_i2c1Status+10)^0,w,c	;volatile
  2485  0012CE  B4D8               	btfsc	status,2,c
  2486  0012D0  EF6C  F009         	goto	u101
  2487  0012D4  EF6E  F009         	goto	u100
  2488  0012D8                     u101:
  2489  0012D8  EF7A  F009         	goto	l1293
  2490  0012DC                     u100:
  2491  0012DC                     
  2492                           ;mcc_generated_files/i2c_host/src/mssp1.c: 343:         {;mcc_generated_files/i2c_host/s
      +                          rc/mssp1.c: 344:             *i2c1Status.readPtr++ = I2C1_DataReceive();
  2493  0012DC  EC6A  F00B         	call	_I2C1_DataReceive	;wreg free
  2494  0012E0  C008  FFD9         	movff	_i2c1Status+7,fsr2l	;volatile
  2495  0012E4  C009  FFDA         	movff	_i2c1Status+8,fsr2h	;volatile
  2496  0012E8  6EDF               	movwf	indf2,c
  2497  0012EA  4A08               	infsnz	(_i2c1Status+7)^0,f,c	;volatile
  2498  0012EC  2A09               	incf	(_i2c1Status+8)^0,f,c	;volatile
  2499  0012EE                     
  2500                           ;mcc_generated_files/i2c_host/src/mssp1.c: 345:             i2c1Status.readLength--;
  2501  0012EE  060A               	decf	(_i2c1Status+9)^0,f,c	;volatile
  2502  0012F0  A0D8               	btfss	status,0,c
  2503  0012F2  060B               	decf	(_i2c1Status+10)^0,f,c	;volatile
  2504  0012F4                     l1293:
  2505                           
  2506                           ;mcc_generated_files/i2c_host/src/mssp1.c: 349:         if (i2c1Status.readLength > 0)
  2507  0012F4  500A               	movf	(_i2c1Status+9)^0,w,c	;volatile
  2508  0012F6  100B               	iorwf	(_i2c1Status+10)^0,w,c	;volatile
  2509  0012F8  B4D8               	btfsc	status,2,c
  2510  0012FA  EF81  F009         	goto	u111
  2511  0012FE  EF83  F009         	goto	u110
  2512  001302                     u111:
  2513  001302  EF87  F009         	goto	l1297
  2514  001306                     u110:
  2515  001306                     
  2516                           ;mcc_generated_files/i2c_host/src/mssp1.c: 350:         {;mcc_generated_files/i2c_host/s
      +                          rc/mssp1.c: 351:             I2C1_AckSend();
  2517  001306  EC53  F00B         	call	_I2C1_AckSend	;wreg free
  2518                           
  2519                           ;mcc_generated_files/i2c_host/src/mssp1.c: 352:         }
  2520  00130A  EF91  F009         	goto	l1303
  2521  00130E                     l1297:
  2522                           
  2523                           ;mcc_generated_files/i2c_host/src/mssp1.c: 354:         {;mcc_generated_files/i2c_host/s
      +                          rc/mssp1.c: 355:             I2C1_RestartDisable();
  2524  00130E  EC66  F00B         	call	_I2C1_RestartDisable	;wreg free
  2525                           
  2526                           ;mcc_generated_files/i2c_host/src/mssp1.c: 356:             I2C1_NackSend();
  2527  001312  EC50  F00B         	call	_I2C1_NackSend	;wreg free
  2528  001316                     
  2529                           ;mcc_generated_files/i2c_host/src/mssp1.c: 357:             retEventState = I2C_STATE_ST
      +                          OP;
  2530  001316  0E07               	movlw	7
  2531  001318  6E1B               	movwf	I2C1_EVENT_RX@retEventState^0,c
  2532  00131A  EF91  F009         	goto	l1303
  2533  00131E                     l1301:
  2534                           
  2535                           ;mcc_generated_files/i2c_host/src/mssp1.c: 362:     {;mcc_generated_files/i2c_host/src/m
      +                          ssp1.c: 363:         I2C1_ReceiveEnable();
  2536  00131E  EC68  F00B         	call	_I2C1_ReceiveEnable	;wreg free
  2537  001322                     l1303:
  2538                           
  2539                           ;mcc_generated_files/i2c_host/src/mssp1.c: 365:     return retEventState;
  2540  001322  501B               	movf	I2C1_EVENT_RX@retEventState^0,w,c
  2541  001324  0012               	return		;funcret
  2542  001326                     __end_of_I2C1_EVENT_RX:
  2543                           	callstack 0
  2544                           
  2545 ;; *************** function _I2C1_EVENT_SEND_WR_ADDR *****************
  2546 ;; Defined at:
  2547 ;;		line 304 in file "mcc_generated_files/i2c_host/src/mssp1.c"
  2548 ;; Parameters:    Size  Location     Type
  2549 ;;		None
  2550 ;; Auto vars:     Size  Location     Type
  2551 ;;		None
  2552 ;; Return value:  Size  Location     Type
  2553 ;;                  1    wreg      enum E13004
  2554 ;; Registers used:
  2555 ;;		wreg, status,2, status,0, cstack
  2556 ;; Tracked objects:
  2557 ;;		On entry : 0/0
  2558 ;;		On exit  : 0/0
  2559 ;;		Unchanged: 0/0
  2560 ;; Data sizes:     COMRAM   BANK0   BANK1   BANK2   BANK3   BANK4   BANK5   BANK6   BANK7   BANK8   BANK9  BANK10  BANK1
      +1  BANK12  BANK13  BANK14
  2561 ;;      Params:         0       0       0       0       0       0       0       0       0       0       0       0       
      +0       0       0       0
  2562 ;;      Locals:         0       0       0       0       0       0       0       0       0       0       0       0       
      +0       0       0       0
  2563 ;;      Temps:          0       0       0       0       0       0       0       0       0       0       0       0       
      +0       0       0       0
  2564 ;;      Totals:         0       0       0       0       0       0       0       0       0       0       0       0       
      +0       0       0       0
  2565 ;;Total ram usage:        0 bytes
  2566 ;; Hardware stack levels used: 1
  2567 ;; Hardware stack levels required when called: 1
  2568 ;; This function calls:
  2569 ;;		_I2C1_DataTransmit
  2570 ;; This function is called by:
  2571 ;;		_I2C1_ErrorEventHandler
  2572 ;;		_I2C1_EventHandler
  2573 ;; This function uses a non-reentrant model
  2574 ;;
  2575                           
  2576                           	psect	text25
  2577  00164E                     __ptext25:
  2578                           	callstack 0
  2579  00164E                     _I2C1_EVENT_SEND_WR_ADDR:
  2580                           	callstack 27
  2581  00164E                     
  2582                           ;mcc_generated_files/i2c_host/src/mssp1.c: 306:     I2C1_DataTransmit((uint8_t) (i2c1Sta
      +                          tus.address << 1));
  2583  00164E  5002               	movf	(_i2c1Status+1)^0,w,c	;volatile
  2584  001650  2402               	addwf	(_i2c1Status+1)^0,w,c	;volatile
  2585  001652  EC4C  F00B         	call	_I2C1_DataTransmit
  2586  001656                     
  2587                           ;mcc_generated_files/i2c_host/src/mssp1.c: 307:     return I2C_STATE_TX;
  2588  001656  0E03               	movlw	3
  2589  001658  0012               	return		;funcret
  2590  00165A                     __end_of_I2C1_EVENT_SEND_WR_ADDR:
  2591                           	callstack 0
  2592                           
  2593 ;; *************** function _I2C1_EVENT_SEND_RD_ADDR *****************
  2594 ;; Defined at:
  2595 ;;		line 298 in file "mcc_generated_files/i2c_host/src/mssp1.c"
  2596 ;; Parameters:    Size  Location     Type
  2597 ;;		None
  2598 ;; Auto vars:     Size  Location     Type
  2599 ;;		None
  2600 ;; Return value:  Size  Location     Type
  2601 ;;                  1    wreg      enum E13004
  2602 ;; Registers used:
  2603 ;;		wreg, status,0, cstack
  2604 ;; Tracked objects:
  2605 ;;		On entry : 0/0
  2606 ;;		On exit  : 0/0
  2607 ;;		Unchanged: 0/0
  2608 ;; Data sizes:     COMRAM   BANK0   BANK1   BANK2   BANK3   BANK4   BANK5   BANK6   BANK7   BANK8   BANK9  BANK10  BANK1
      +1  BANK12  BANK13  BANK14
  2609 ;;      Params:         0       0       0       0       0       0       0       0       0       0       0       0       
      +0       0       0       0
  2610 ;;      Locals:         0       0       0       0       0       0       0       0       0       0       0       0       
      +0       0       0       0
  2611 ;;      Temps:          0       0       0       0       0       0       0       0       0       0       0       0       
      +0       0       0       0
  2612 ;;      Totals:         0       0       0       0       0       0       0       0       0       0       0       0       
      +0       0       0       0
  2613 ;;Total ram usage:        0 bytes
  2614 ;; Hardware stack levels used: 1
  2615 ;; Hardware stack levels required when called: 1
  2616 ;; This function calls:
  2617 ;;		_I2C1_DataTransmit
  2618 ;; This function is called by:
  2619 ;;		_I2C1_ErrorEventHandler
  2620 ;;		_I2C1_EventHandler
  2621 ;; This function uses a non-reentrant model
  2622 ;;
  2623                           
  2624                           	psect	text26
  2625  00165A                     __ptext26:
  2626                           	callstack 0
  2627  00165A                     _I2C1_EVENT_SEND_RD_ADDR:
  2628                           	callstack 27
  2629  00165A                     
  2630                           ;mcc_generated_files/i2c_host/src/mssp1.c: 300:     I2C1_DataTransmit((uint8_t) (i2c1Sta
      +                          tus.address << 1 | 1));
  2631  00165A  80D8               	bsf	status,0,c
  2632  00165C  3402               	rlcf	(_i2c1Status+1)^0,w,c	;volatile
  2633  00165E  EC4C  F00B         	call	_I2C1_DataTransmit
  2634  001662                     
  2635                           ;mcc_generated_files/i2c_host/src/mssp1.c: 301:     return I2C_STATE_RX;
  2636  001662  0E04               	movlw	4
  2637  001664  0012               	return		;funcret
  2638  001666                     __end_of_I2C1_EVENT_SEND_RD_ADDR:
  2639                           	callstack 0
  2640                           
  2641 ;; *************** function _I2C1_EVENT_IDLE *****************
  2642 ;; Defined at:
  2643 ;;		line 292 in file "mcc_generated_files/i2c_host/src/mssp1.c"
  2644 ;; Parameters:    Size  Location     Type
  2645 ;;		None
  2646 ;; Auto vars:     Size  Location     Type
  2647 ;;		None
  2648 ;; Return value:  Size  Location     Type
  2649 ;;                  1    wreg      enum E13004
  2650 ;; Registers used:
  2651 ;;		wreg, status,2
  2652 ;; Tracked objects:
  2653 ;;		On entry : 0/0
  2654 ;;		On exit  : 0/0
  2655 ;;		Unchanged: 0/0
  2656 ;; Data sizes:     COMRAM   BANK0   BANK1   BANK2   BANK3   BANK4   BANK5   BANK6   BANK7   BANK8   BANK9  BANK10  BANK1
      +1  BANK12  BANK13  BANK14
  2657 ;;      Params:         0       0       0       0       0       0       0       0       0       0       0       0       
      +0       0       0       0
  2658 ;;      Locals:         0       0       0       0       0       0       0       0       0       0       0       0       
      +0       0       0       0
  2659 ;;      Temps:          0       0       0       0       0       0       0       0       0       0       0       0       
      +0       0       0       0
  2660 ;;      Totals:         0       0       0       0       0       0       0       0       0       0       0       0       
      +0       0       0       0
  2661 ;;Total ram usage:        0 bytes
  2662 ;; Hardware stack levels used: 1
  2663 ;; This function calls:
  2664 ;;		Nothing
  2665 ;; This function is called by:
  2666 ;;		_I2C1_ErrorEventHandler
  2667 ;;		_I2C1_EventHandler
  2668 ;; This function uses a non-reentrant model
  2669 ;;
  2670                           
  2671                           	psect	text27
  2672  001690                     __ptext27:
  2673                           	callstack 0
  2674  001690                     _I2C1_EVENT_IDLE:
  2675                           	callstack 28
  2676  001690                     
  2677                           ;mcc_generated_files/i2c_host/src/mssp1.c: 294:     i2c1Status.busy = 0;
  2678  001690  0E00               	movlw	0
  2679  001692  6E01               	movwf	_i2c1Status^0,c	;volatile
  2680  001694                     
  2681                           ;mcc_generated_files/i2c_host/src/mssp1.c: 295:     return I2C_STATE_RESET;
  2682  001694  0E08               	movlw	8
  2683  001696  0012               	return		;funcret
  2684  001698                     __end_of_I2C1_EVENT_IDLE:
  2685                           	callstack 0
  2686                           
  2687 ;; *************** function _I2C1_EVENT_TX *****************
  2688 ;; Defined at:
  2689 ;;		line 310 in file "mcc_generated_files/i2c_host/src/mssp1.c"
  2690 ;; Parameters:    Size  Location     Type
  2691 ;;		None
  2692 ;; Auto vars:     Size  Location     Type
  2693 ;;  retEventStat    1    1[COMRAM] enum E13004
  2694 ;; Return value:  Size  Location     Type
  2695 ;;                  1    wreg      enum E13004
  2696 ;; Registers used:
  2697 ;;		wreg, fsr2l, fsr2h, status,2, status,0, cstack
  2698 ;; Tracked objects:
  2699 ;;		On entry : 0/0
  2700 ;;		On exit  : 0/0
  2701 ;;		Unchanged: 0/0
  2702 ;; Data sizes:     COMRAM   BANK0   BANK1   BANK2   BANK3   BANK4   BANK5   BANK6   BANK7   BANK8   BANK9  BANK10  BANK1
      +1  BANK12  BANK13  BANK14
  2703 ;;      Params:         0       0       0       0       0       0       0       0       0       0       0       0       
      +0       0       0       0
  2704 ;;      Locals:         1       0       0       0       0       0       0       0       0       0       0       0       
      +0       0       0       0
  2705 ;;      Temps:          0       0       0       0       0       0       0       0       0       0       0       0       
      +0       0       0       0
  2706 ;;      Totals:         1       0       0       0       0       0       0       0       0       0       0       0       
      +0       0       0       0
  2707 ;;Total ram usage:        1 bytes
  2708 ;; Hardware stack levels used: 1
  2709 ;; Hardware stack levels required when called: 3
  2710 ;; This function calls:
  2711 ;;		_I2C1_DataTransmit
  2712 ;;		_I2C1_EVENT_STOP
  2713 ;;		_I2C1_RestartEnable
  2714 ;; This function is called by:
  2715 ;;		_I2C1_ErrorEventHandler
  2716 ;;		_I2C1_EventHandler
  2717 ;; This function uses a non-reentrant model
  2718 ;;
  2719                           
  2720                           	psect	text28
  2721  001386                     __ptext28:
  2722                           	callstack 0
  2723  001386                     _I2C1_EVENT_TX:
  2724                           	callstack 25
  2725  001386                     
  2726                           ;mcc_generated_files/i2c_host/src/mssp1.c: 313:     if (i2c1Status.writeLength)
  2727  001386  5006               	movf	(_i2c1Status+5)^0,w,c	;volatile
  2728  001388  1007               	iorwf	(_i2c1Status+6)^0,w,c	;volatile
  2729  00138A  B4D8               	btfsc	status,2,c
  2730  00138C  EFCA  F009         	goto	u71
  2731  001390  EFCC  F009         	goto	u70
  2732  001394                     u71:
  2733  001394  EFDC  F009         	goto	l1267
  2734  001398                     u70:
  2735  001398                     
  2736                           ;mcc_generated_files/i2c_host/src/mssp1.c: 314:     {;mcc_generated_files/i2c_host/src/m
      +                          ssp1.c: 315:         i2c1Status.writeLength--;
  2737  001398  0606               	decf	(_i2c1Status+5)^0,f,c	;volatile
  2738  00139A  A0D8               	btfss	status,0,c
  2739  00139C  0607               	decf	(_i2c1Status+6)^0,f,c	;volatile
  2740  00139E                     
  2741                           ;mcc_generated_files/i2c_host/src/mssp1.c: 316:         I2C1_DataTransmit(*i2c1Status.wr
      +                          itePtr++);
  2742  00139E  C004  FFD9         	movff	_i2c1Status+3,fsr2l	;volatile
  2743  0013A2  C005  FFDA         	movff	_i2c1Status+4,fsr2h	;volatile
  2744  0013A6  4A04               	infsnz	(_i2c1Status+3)^0,f,c	;volatile
  2745  0013A8  2A05               	incf	(_i2c1Status+4)^0,f,c	;volatile
  2746  0013AA  50DF               	movf	indf2,w,c
  2747  0013AC  EC4C  F00B         	call	_I2C1_DataTransmit
  2748  0013B0                     
  2749                           ;mcc_generated_files/i2c_host/src/mssp1.c: 317:         retEventState = I2C_STATE_TX;
  2750  0013B0  0E03               	movlw	3
  2751  0013B2  6E1C               	movwf	I2C1_EVENT_TX@retEventState^0,c
  2752                           
  2753                           ;mcc_generated_files/i2c_host/src/mssp1.c: 318:     }
  2754  0013B4  EFEF  F009         	goto	l1277
  2755  0013B8                     l1267:
  2756                           
  2757                           ;mcc_generated_files/i2c_host/src/mssp1.c: 320:     {;mcc_generated_files/i2c_host/src/m
      +                          ssp1.c: 321:         if (i2c1Status.switchToRead)
  2758  0013B8  500C               	movf	(_i2c1Status+11)^0,w,c	;volatile
  2759  0013BA  B4D8               	btfsc	status,2,c
  2760  0013BC  EFE2  F009         	goto	u81
  2761  0013C0  EFE4  F009         	goto	u80
  2762  0013C4                     u81:
  2763  0013C4  EFEC  F009         	goto	l1275
  2764  0013C8                     u80:
  2765  0013C8                     
  2766                           ;mcc_generated_files/i2c_host/src/mssp1.c: 322:         {;mcc_generated_files/i2c_host/s
      +                          rc/mssp1.c: 323:             i2c1Status.switchToRead = 0;
  2767  0013C8  0E00               	movlw	0
  2768  0013CA  6E0C               	movwf	(_i2c1Status+11)^0,c	;volatile
  2769  0013CC                     
  2770                           ;mcc_generated_files/i2c_host/src/mssp1.c: 324:             I2C1_RestartEnable();
  2771  0013CC  EC64  F00B         	call	_I2C1_RestartEnable	;wreg free
  2772  0013D0                     
  2773                           ;mcc_generated_files/i2c_host/src/mssp1.c: 325:             retEventState = I2C_STATE_SE
      +                          ND_RD_ADDR;
  2774  0013D0  0E01               	movlw	1
  2775  0013D2  6E1C               	movwf	I2C1_EVENT_TX@retEventState^0,c
  2776                           
  2777                           ;mcc_generated_files/i2c_host/src/mssp1.c: 326:         }
  2778  0013D4  EFEF  F009         	goto	l1277
  2779  0013D8                     l1275:
  2780                           
  2781                           ;mcc_generated_files/i2c_host/src/mssp1.c: 328:         {;mcc_generated_files/i2c_host/s
      +                          rc/mssp1.c: 329:             retEventState = I2C1_EVENT_STOP();
  2782  0013D8  EC21  F00B         	call	_I2C1_EVENT_STOP	;wreg free
  2783  0013DC  6E1C               	movwf	I2C1_EVENT_TX@retEventState^0,c
  2784  0013DE                     l1277:
  2785                           
  2786                           ;mcc_generated_files/i2c_host/src/mssp1.c: 333:     return retEventState;
  2787  0013DE  501C               	movf	I2C1_EVENT_TX@retEventState^0,w,c
  2788  0013E0  0012               	return		;funcret
  2789  0013E2                     __end_of_I2C1_EVENT_TX:
  2790                           	callstack 0
  2791                           
  2792 ;; *************** function _I2C1_RestartEnable *****************
  2793 ;; Defined at:
  2794 ;;		line 420 in file "mcc_generated_files/i2c_host/src/mssp1.c"
  2795 ;; Parameters:    Size  Location     Type
  2796 ;;		None
  2797 ;; Auto vars:     Size  Location     Type
  2798 ;;		None
  2799 ;; Return value:  Size  Location     Type
  2800 ;;                  1    wreg      void 
  2801 ;; Registers used:
  2802 ;;		None
  2803 ;; Tracked objects:
  2804 ;;		On entry : 0/0
  2805 ;;		On exit  : 0/0
  2806 ;;		Unchanged: 0/0
  2807 ;; Data sizes:     COMRAM   BANK0   BANK1   BANK2   BANK3   BANK4   BANK5   BANK6   BANK7   BANK8   BANK9  BANK10  BANK1
      +1  BANK12  BANK13  BANK14
  2808 ;;      Params:         0       0       0       0       0       0       0       0       0       0       0       0       
      +0       0       0       0
  2809 ;;      Locals:         0       0       0       0       0       0       0       0       0       0       0       0       
      +0       0       0       0
  2810 ;;      Temps:          0       0       0       0       0       0       0       0       0       0       0       0       
      +0       0       0       0
  2811 ;;      Totals:         0       0       0       0       0       0       0       0       0       0       0       0       
      +0       0       0       0
  2812 ;;Total ram usage:        0 bytes
  2813 ;; Hardware stack levels used: 1
  2814 ;; This function calls:
  2815 ;;		Nothing
  2816 ;; This function is called by:
  2817 ;;		_I2C1_EVENT_TX
  2818 ;; This function uses a non-reentrant model
  2819 ;;
  2820                           
  2821                           	psect	text29
  2822  0016C8                     __ptext29:
  2823                           	callstack 0
  2824  0016C8                     _I2C1_RestartEnable:
  2825                           	callstack 27
  2826  0016C8                     
  2827                           ;mcc_generated_files/i2c_host/src/mssp1.c: 422:     SSP1CON2bits.RSEN = 1;
  2828  0016C8  8296               	bsf	150,1,c	;volatile
  2829  0016CA  0012               	return		;funcret
  2830  0016CC                     __end_of_I2C1_RestartEnable:
  2831                           	callstack 0
  2832                           
  2833 ;; *************** function _I2C1_DataTransmit *****************
  2834 ;; Defined at:
  2835 ;;		line 404 in file "mcc_generated_files/i2c_host/src/mssp1.c"
  2836 ;; Parameters:    Size  Location     Type
  2837 ;;  data            1    wreg     unsigned char 
  2838 ;; Auto vars:     Size  Location     Type
  2839 ;;  data            1    0[COMRAM] unsigned char 
  2840 ;; Return value:  Size  Location     Type
  2841 ;;                  1    wreg      void 
  2842 ;; Registers used:
  2843 ;;		wreg
  2844 ;; Tracked objects:
  2845 ;;		On entry : 0/0
  2846 ;;		On exit  : 0/0
  2847 ;;		Unchanged: 0/0
  2848 ;; Data sizes:     COMRAM   BANK0   BANK1   BANK2   BANK3   BANK4   BANK5   BANK6   BANK7   BANK8   BANK9  BANK10  BANK1
      +1  BANK12  BANK13  BANK14
  2849 ;;      Params:         0       0       0       0       0       0       0       0       0       0       0       0       
      +0       0       0       0
  2850 ;;      Locals:         1       0       0       0       0       0       0       0       0       0       0       0       
      +0       0       0       0
  2851 ;;      Temps:          0       0       0       0       0       0       0       0       0       0       0       0       
      +0       0       0       0
  2852 ;;      Totals:         1       0       0       0       0       0       0       0       0       0       0       0       
      +0       0       0       0
  2853 ;;Total ram usage:        1 bytes
  2854 ;; Hardware stack levels used: 1
  2855 ;; This function calls:
  2856 ;;		Nothing
  2857 ;; This function is called by:
  2858 ;;		_I2C1_EVENT_SEND_RD_ADDR
  2859 ;;		_I2C1_EVENT_SEND_WR_ADDR
  2860 ;;		_I2C1_EVENT_TX
  2861 ;; This function uses a non-reentrant model
  2862 ;;
  2863                           
  2864                           	psect	text30
  2865  001698                     __ptext30:
  2866                           	callstack 0
  2867  001698                     _I2C1_DataTransmit:
  2868                           	callstack 27
  2869                           
  2870                           ;incstack = 0
  2871                           ;I2C1_DataTransmit@data stored from wreg
  2872  001698  6E1B               	movwf	I2C1_DataTransmit@data^0,c
  2873  00169A                     
  2874                           ;mcc_generated_files/i2c_host/src/mssp1.c: 404: static void I2C1_DataTransmit(uint8_t da
      +                          ta);mcc_generated_files/i2c_host/src/mssp1.c: 405: {;mcc_generated_files/i2c_host/src/ms
      +                          sp1.c: 406:     SSP1BUF = data;
  2875  00169A  C01B  FF91         	movff	I2C1_DataTransmit@data,3985	;volatile
  2876  00169E  0012               	return		;funcret
  2877  0016A0                     __end_of_I2C1_DataTransmit:
  2878                           	callstack 0
  2879                           
  2880 ;; *************** function _I2C1_RestartDisable *****************
  2881 ;; Defined at:
  2882 ;;		line 425 in file "mcc_generated_files/i2c_host/src/mssp1.c"
  2883 ;; Parameters:    Size  Location     Type
  2884 ;;		None
  2885 ;; Auto vars:     Size  Location     Type
  2886 ;;		None
  2887 ;; Return value:  Size  Location     Type
  2888 ;;                  1    wreg      void 
  2889 ;; Registers used:
  2890 ;;		None
  2891 ;; Tracked objects:
  2892 ;;		On entry : 0/0
  2893 ;;		On exit  : 0/0
  2894 ;;		Unchanged: 0/0
  2895 ;; Data sizes:     COMRAM   BANK0   BANK1   BANK2   BANK3   BANK4   BANK5   BANK6   BANK7   BANK8   BANK9  BANK10  BANK1
      +1  BANK12  BANK13  BANK14
  2896 ;;      Params:         0       0       0       0       0       0       0       0       0       0       0       0       
      +0       0       0       0
  2897 ;;      Locals:         0       0       0       0       0       0       0       0       0       0       0       0       
      +0       0       0       0
  2898 ;;      Temps:          0       0       0       0       0       0       0       0       0       0       0       0       
      +0       0       0       0
  2899 ;;      Totals:         0       0       0       0       0       0       0       0       0       0       0       0       
      +0       0       0       0
  2900 ;;Total ram usage:        0 bytes
  2901 ;; Hardware stack levels used: 1
  2902 ;; This function calls:
  2903 ;;		Nothing
  2904 ;; This function is called by:
  2905 ;;		_I2C1_EVENT_RX
  2906 ;; This function uses a non-reentrant model
  2907 ;;
  2908                           
  2909                           	psect	text31
  2910  0016CC                     __ptext31:
  2911                           	callstack 0
  2912  0016CC                     _I2C1_RestartDisable:
  2913                           	callstack 27
  2914  0016CC                     
  2915                           ;mcc_generated_files/i2c_host/src/mssp1.c: 427:     SSP1CON2bits.RSEN = 0;
  2916  0016CC  9296               	bcf	150,1,c	;volatile
  2917  0016CE  0012               	return		;funcret
  2918  0016D0                     __end_of_I2C1_RestartDisable:
  2919                           	callstack 0
  2920                           
  2921 ;; *************** function _I2C1_ReceiveEnable *****************
  2922 ;; Defined at:
  2923 ;;		line 415 in file "mcc_generated_files/i2c_host/src/mssp1.c"
  2924 ;; Parameters:    Size  Location     Type
  2925 ;;		None
  2926 ;; Auto vars:     Size  Location     Type
  2927 ;;		None
  2928 ;; Return value:  Size  Location     Type
  2929 ;;                  1    wreg      void 
  2930 ;; Registers used:
  2931 ;;		None
  2932 ;; Tracked objects:
  2933 ;;		On entry : 0/0
  2934 ;;		On exit  : 0/0
  2935 ;;		Unchanged: 0/0
  2936 ;; Data sizes:     COMRAM   BANK0   BANK1   BANK2   BANK3   BANK4   BANK5   BANK6   BANK7   BANK8   BANK9  BANK10  BANK1
      +1  BANK12  BANK13  BANK14
  2937 ;;      Params:         0       0       0       0       0       0       0       0       0       0       0       0       
      +0       0       0       0
  2938 ;;      Locals:         0       0       0       0       0       0       0       0       0       0       0       0       
      +0       0       0       0
  2939 ;;      Temps:          0       0       0       0       0       0       0       0       0       0       0       0       
      +0       0       0       0
  2940 ;;      Totals:         0       0       0       0       0       0       0       0       0       0       0       0       
      +0       0       0       0
  2941 ;;Total ram usage:        0 bytes
  2942 ;; Hardware stack levels used: 1
  2943 ;; This function calls:
  2944 ;;		Nothing
  2945 ;; This function is called by:
  2946 ;;		_I2C1_EVENT_RX
  2947 ;; This function uses a non-reentrant model
  2948 ;;
  2949                           
  2950                           	psect	text32
  2951  0016D0                     __ptext32:
  2952                           	callstack 0
  2953  0016D0                     _I2C1_ReceiveEnable:
  2954                           	callstack 27
  2955  0016D0                     
  2956                           ;mcc_generated_files/i2c_host/src/mssp1.c: 417:     SSP1CON2bits.RCEN = 1;
  2957  0016D0  8696               	bsf	150,3,c	;volatile
  2958  0016D2  0012               	return		;funcret
  2959  0016D4                     __end_of_I2C1_ReceiveEnable:
  2960                           	callstack 0
  2961                           
  2962 ;; *************** function _I2C1_NackSend *****************
  2963 ;; Defined at:
  2964 ;;		line 446 in file "mcc_generated_files/i2c_host/src/mssp1.c"
  2965 ;; Parameters:    Size  Location     Type
  2966 ;;		None
  2967 ;; Auto vars:     Size  Location     Type
  2968 ;;		None
  2969 ;; Return value:  Size  Location     Type
  2970 ;;                  1    wreg      void 
  2971 ;; Registers used:
  2972 ;;		None
  2973 ;; Tracked objects:
  2974 ;;		On entry : 0/0
  2975 ;;		On exit  : 0/0
  2976 ;;		Unchanged: 0/0
  2977 ;; Data sizes:     COMRAM   BANK0   BANK1   BANK2   BANK3   BANK4   BANK5   BANK6   BANK7   BANK8   BANK9  BANK10  BANK1
      +1  BANK12  BANK13  BANK14
  2978 ;;      Params:         0       0       0       0       0       0       0       0       0       0       0       0       
      +0       0       0       0
  2979 ;;      Locals:         0       0       0       0       0       0       0       0       0       0       0       0       
      +0       0       0       0
  2980 ;;      Temps:          0       0       0       0       0       0       0       0       0       0       0       0       
      +0       0       0       0
  2981 ;;      Totals:         0       0       0       0       0       0       0       0       0       0       0       0       
      +0       0       0       0
  2982 ;;Total ram usage:        0 bytes
  2983 ;; Hardware stack levels used: 1
  2984 ;; This function calls:
  2985 ;;		Nothing
  2986 ;; This function is called by:
  2987 ;;		_I2C1_EVENT_RX
  2988 ;; This function uses a non-reentrant model
  2989 ;;
  2990                           
  2991                           	psect	text33
  2992  0016A0                     __ptext33:
  2993                           	callstack 0
  2994  0016A0                     _I2C1_NackSend:
  2995                           	callstack 27
  2996  0016A0                     
  2997                           ;mcc_generated_files/i2c_host/src/mssp1.c: 448:     SSP1CON2bits.ACKDT = 1;
  2998  0016A0  8A96               	bsf	150,5,c	;volatile
  2999                           
  3000                           ;mcc_generated_files/i2c_host/src/mssp1.c: 449:     SSP1CON2bits.ACKEN = 1;
  3001  0016A2  8896               	bsf	150,4,c	;volatile
  3002  0016A4  0012               	return		;funcret
  3003  0016A6                     __end_of_I2C1_NackSend:
  3004                           	callstack 0
  3005                           
  3006 ;; *************** function _I2C1_IsRxBufFull *****************
  3007 ;; Defined at:
  3008 ;;		line 467 in file "mcc_generated_files/i2c_host/src/mssp1.c"
  3009 ;; Parameters:    Size  Location     Type
  3010 ;;		None
  3011 ;; Auto vars:     Size  Location     Type
  3012 ;;		None
  3013 ;; Return value:  Size  Location     Type
  3014 ;;                  1    wreg      _Bool 
  3015 ;; Registers used:
  3016 ;;		wreg
  3017 ;; Tracked objects:
  3018 ;;		On entry : 0/0
  3019 ;;		On exit  : 0/0
  3020 ;;		Unchanged: 0/0
  3021 ;; Data sizes:     COMRAM   BANK0   BANK1   BANK2   BANK3   BANK4   BANK5   BANK6   BANK7   BANK8   BANK9  BANK10  BANK1
      +1  BANK12  BANK13  BANK14
  3022 ;;      Params:         0       0       0       0       0       0       0       0       0       0       0       0       
      +0       0       0       0
  3023 ;;      Locals:         0       0       0       0       0       0       0       0       0       0       0       0       
      +0       0       0       0
  3024 ;;      Temps:          0       0       0       0       0       0       0       0       0       0       0       0       
      +0       0       0       0
  3025 ;;      Totals:         0       0       0       0       0       0       0       0       0       0       0       0       
      +0       0       0       0
  3026 ;;Total ram usage:        0 bytes
  3027 ;; Hardware stack levels used: 1
  3028 ;; This function calls:
  3029 ;;		Nothing
  3030 ;; This function is called by:
  3031 ;;		_I2C1_EVENT_RX
  3032 ;; This function uses a non-reentrant model
  3033 ;;
  3034                           
  3035                           	psect	text34
  3036  0015E6                     __ptext34:
  3037                           	callstack 0
  3038  0015E6                     _I2C1_IsRxBufFull:
  3039                           	callstack 27
  3040  0015E6                     
  3041                           ;mcc_generated_files/i2c_host/src/mssp1.c: 469:     return SSP1STATbits.BF;
  3042  0015E6  B094               	btfsc	148,0,c	;volatile
  3043  0015E8  EFF8  F00A         	goto	u11
  3044  0015EC  EFFB  F00A         	goto	u10
  3045  0015F0                     u11:
  3046  0015F0  0E01               	movlw	1
  3047  0015F2  EFFC  F00A         	goto	u16
  3048  0015F6                     u10:
  3049  0015F6  0E00               	movlw	0
  3050  0015F8                     u16:
  3051  0015F8  0012               	return		;funcret
  3052  0015FA                     __end_of_I2C1_IsRxBufFull:
  3053                           	callstack 0
  3054                           
  3055 ;; *************** function _I2C1_DataReceive *****************
  3056 ;; Defined at:
  3057 ;;		line 399 in file "mcc_generated_files/i2c_host/src/mssp1.c"
  3058 ;; Parameters:    Size  Location     Type
  3059 ;;		None
  3060 ;; Auto vars:     Size  Location     Type
  3061 ;;		None
  3062 ;; Return value:  Size  Location     Type
  3063 ;;                  1    wreg      unsigned char 
  3064 ;; Registers used:
  3065 ;;		wreg, status,2
  3066 ;; Tracked objects:
  3067 ;;		On entry : 0/0
  3068 ;;		On exit  : 0/0
  3069 ;;		Unchanged: 0/0
  3070 ;; Data sizes:     COMRAM   BANK0   BANK1   BANK2   BANK3   BANK4   BANK5   BANK6   BANK7   BANK8   BANK9  BANK10  BANK1
      +1  BANK12  BANK13  BANK14
  3071 ;;      Params:         0       0       0       0       0       0       0       0       0       0       0       0       
      +0       0       0       0
  3072 ;;      Locals:         0       0       0       0       0       0       0       0       0       0       0       0       
      +0       0       0       0
  3073 ;;      Temps:          0       0       0       0       0       0       0       0       0       0       0       0       
      +0       0       0       0
  3074 ;;      Totals:         0       0       0       0       0       0       0       0       0       0       0       0       
      +0       0       0       0
  3075 ;;Total ram usage:        0 bytes
  3076 ;; Hardware stack levels used: 1
  3077 ;; This function calls:
  3078 ;;		Nothing
  3079 ;; This function is called by:
  3080 ;;		_I2C1_EVENT_RX
  3081 ;; This function uses a non-reentrant model
  3082 ;;
  3083                           
  3084                           	psect	text35
  3085  0016D4                     __ptext35:
  3086                           	callstack 0
  3087  0016D4                     _I2C1_DataReceive:
  3088                           	callstack 27
  3089  0016D4                     
  3090                           ;mcc_generated_files/i2c_host/src/mssp1.c: 401:     return SSP1BUF;
  3091  0016D4  5091               	movf	145,w,c	;volatile
  3092  0016D6  0012               	return		;funcret
  3093  0016D8                     __end_of_I2C1_DataReceive:
  3094                           	callstack 0
  3095                           
  3096 ;; *************** function _I2C1_AckSend *****************
  3097 ;; Defined at:
  3098 ;;		line 440 in file "mcc_generated_files/i2c_host/src/mssp1.c"
  3099 ;; Parameters:    Size  Location     Type
  3100 ;;		None
  3101 ;; Auto vars:     Size  Location     Type
  3102 ;;		None
  3103 ;; Return value:  Size  Location     Type
  3104 ;;                  1    wreg      void 
  3105 ;; Registers used:
  3106 ;;		None
  3107 ;; Tracked objects:
  3108 ;;		On entry : 0/0
  3109 ;;		On exit  : 0/0
  3110 ;;		Unchanged: 0/0
  3111 ;; Data sizes:     COMRAM   BANK0   BANK1   BANK2   BANK3   BANK4   BANK5   BANK6   BANK7   BANK8   BANK9  BANK10  BANK1
      +1  BANK12  BANK13  BANK14
  3112 ;;      Params:         0       0       0       0       0       0       0       0       0       0       0       0       
      +0       0       0       0
  3113 ;;      Locals:         0       0       0       0       0       0       0       0       0       0       0       0       
      +0       0       0       0
  3114 ;;      Temps:          0       0       0       0       0       0       0       0       0       0       0       0       
      +0       0       0       0
  3115 ;;      Totals:         0       0       0       0       0       0       0       0       0       0       0       0       
      +0       0       0       0
  3116 ;;Total ram usage:        0 bytes
  3117 ;; Hardware stack levels used: 1
  3118 ;; This function calls:
  3119 ;;		Nothing
  3120 ;; This function is called by:
  3121 ;;		_I2C1_EVENT_RX
  3122 ;; This function uses a non-reentrant model
  3123 ;;
  3124                           
  3125                           	psect	text36
  3126  0016A6                     __ptext36:
  3127                           	callstack 0
  3128  0016A6                     _I2C1_AckSend:
  3129                           	callstack 27
  3130  0016A6                     
  3131                           ;mcc_generated_files/i2c_host/src/mssp1.c: 442:     SSP1CON2bits.ACKDT = 0;
  3132  0016A6  9A96               	bcf	150,5,c	;volatile
  3133                           
  3134                           ;mcc_generated_files/i2c_host/src/mssp1.c: 443:     SSP1CON2bits.ACKEN = 1;
  3135  0016A8  8896               	bsf	150,4,c	;volatile
  3136  0016AA  0012               	return		;funcret
  3137  0016AC                     __end_of_I2C1_AckSend:
  3138                           	callstack 0
  3139                           
  3140 ;; *************** function _I2C1_StopSend *****************
  3141 ;; Defined at:
  3142 ;;		line 435 in file "mcc_generated_files/i2c_host/src/mssp1.c"
  3143 ;; Parameters:    Size  Location     Type
  3144 ;;		None
  3145 ;; Auto vars:     Size  Location     Type
  3146 ;;		None
  3147 ;; Return value:  Size  Location     Type
  3148 ;;                  1    wreg      void 
  3149 ;; Registers used:
  3150 ;;		None
  3151 ;; Tracked objects:
  3152 ;;		On entry : 0/0
  3153 ;;		On exit  : 0/0
  3154 ;;		Unchanged: 0/0
  3155 ;; Data sizes:     COMRAM   BANK0   BANK1   BANK2   BANK3   BANK4   BANK5   BANK6   BANK7   BANK8   BANK9  BANK10  BANK1
      +1  BANK12  BANK13  BANK14
  3156 ;;      Params:         0       0       0       0       0       0       0       0       0       0       0       0       
      +0       0       0       0
  3157 ;;      Locals:         0       0       0       0       0       0       0       0       0       0       0       0       
      +0       0       0       0
  3158 ;;      Temps:          0       0       0       0       0       0       0       0       0       0       0       0       
      +0       0       0       0
  3159 ;;      Totals:         0       0       0       0       0       0       0       0       0       0       0       0       
      +0       0       0       0
  3160 ;;Total ram usage:        0 bytes
  3161 ;; Hardware stack levels used: 1
  3162 ;; This function calls:
  3163 ;;		Nothing
  3164 ;; This function is called by:
  3165 ;;		_I2C1_EVENT_STOP
  3166 ;; This function uses a non-reentrant model
  3167 ;;
  3168                           
  3169                           	psect	text37
  3170  0016D8                     __ptext37:
  3171                           	callstack 0
  3172  0016D8                     _I2C1_StopSend:
  3173                           	callstack 26
  3174  0016D8                     
  3175                           ;mcc_generated_files/i2c_host/src/mssp1.c: 437:     SSP1CON2bits.PEN = 1;
  3176  0016D8  8496               	bsf	150,2,c	;volatile
  3177  0016DA  0012               	return		;funcret
  3178  0016DC                     __end_of_I2C1_StopSend:
  3179                           	callstack 0
  3180                           
  3181 ;; *************** function _I2C1_Close *****************
  3182 ;; Defined at:
  3183 ;;		line 249 in file "mcc_generated_files/i2c_host/src/mssp1.c"
  3184 ;; Parameters:    Size  Location     Type
  3185 ;;		None
  3186 ;; Auto vars:     Size  Location     Type
  3187 ;;		None
  3188 ;; Return value:  Size  Location     Type
  3189 ;;                  1    wreg      void 
  3190 ;; Registers used:
  3191 ;;		wreg, status,2, status,0, cstack
  3192 ;; Tracked objects:
  3193 ;;		On entry : 0/0
  3194 ;;		On exit  : 0/0
  3195 ;;		Unchanged: 0/0
  3196 ;; Data sizes:     COMRAM   BANK0   BANK1   BANK2   BANK3   BANK4   BANK5   BANK6   BANK7   BANK8   BANK9  BANK10  BANK1
      +1  BANK12  BANK13  BANK14
  3197 ;;      Params:         0       0       0       0       0       0       0       0       0       0       0       0       
      +0       0       0       0
  3198 ;;      Locals:         0       0       0       0       0       0       0       0       0       0       0       0       
      +0       0       0       0
  3199 ;;      Temps:          0       0       0       0       0       0       0       0       0       0       0       0       
      +0       0       0       0
  3200 ;;      Totals:         0       0       0       0       0       0       0       0       0       0       0       0       
      +0       0       0       0
  3201 ;;Total ram usage:        0 bytes
  3202 ;; Hardware stack levels used: 1
  3203 ;; Hardware stack levels required when called: 1
  3204 ;; This function calls:
  3205 ;;		_I2C1_ErrorInterruptClear
  3206 ;;		_I2C1_InterruptClear
  3207 ;;		_I2C1_StatusFlagsClear
  3208 ;; This function is called by:
  3209 ;;		_I2C1_EVENT_STOP
  3210 ;; This function uses a non-reentrant model
  3211 ;;
  3212                           
  3213                           	psect	text38
  3214  0014C0                     __ptext38:
  3215                           	callstack 0
  3216  0014C0                     _I2C1_Close:
  3217                           	callstack 25
  3218  0014C0                     
  3219                           ;mcc_generated_files/i2c_host/src/mssp1.c: 251:     i2c1Status.busy = 0;
  3220  0014C0  0E00               	movlw	0
  3221  0014C2  6E01               	movwf	_i2c1Status^0,c	;volatile
  3222                           
  3223                           ;mcc_generated_files/i2c_host/src/mssp1.c: 252:     i2c1Status.address = 0xFF;
  3224  0014C4  0E00               	movlw	0
  3225  0014C6  6E03               	movwf	(_i2c1Status+2)^0,c	;volatile
  3226  0014C8  6802               	setf	(_i2c1Status+1)^0,c	;volatile
  3227  0014CA                     
  3228                           ;mcc_generated_files/i2c_host/src/mssp1.c: 253:     i2c1Status.writePtr = ((void*)0);
  3229  0014CA  0E00               	movlw	0
  3230  0014CC  6E04               	movwf	(_i2c1Status+3)^0,c	;volatile
  3231  0014CE  0E00               	movlw	0
  3232  0014D0  6E05               	movwf	(_i2c1Status+4)^0,c	;volatile
  3233  0014D2                     
  3234                           ;mcc_generated_files/i2c_host/src/mssp1.c: 254:     i2c1Status.readPtr = ((void*)0);
  3235  0014D2  0E00               	movlw	0
  3236  0014D4  6E08               	movwf	(_i2c1Status+7)^0,c	;volatile
  3237  0014D6  0E00               	movlw	0
  3238  0014D8  6E09               	movwf	(_i2c1Status+8)^0,c	;volatile
  3239                           
  3240                           ;mcc_generated_files/i2c_host/src/mssp1.c: 255:     i2c1Status.state = I2C_STATE_IDLE;
  3241  0014DA  0E00               	movlw	0
  3242  0014DC  6E0E               	movwf	(_i2c1Status+13)^0,c	;volatile
  3243  0014DE                     
  3244                           ;mcc_generated_files/i2c_host/src/mssp1.c: 256:     I2C1_InterruptClear();
  3245  0014DE  EC59  F00B         	call	_I2C1_InterruptClear	;wreg free
  3246  0014E2                     
  3247                           ;mcc_generated_files/i2c_host/src/mssp1.c: 257:     I2C1_ErrorInterruptClear();
  3248  0014E2  EC5C  F00B         	call	_I2C1_ErrorInterruptClear	;wreg free
  3249  0014E6                     
  3250                           ;mcc_generated_files/i2c_host/src/mssp1.c: 258:     I2C1_StatusFlagsClear();
  3251  0014E6  EC56  F00B         	call	_I2C1_StatusFlagsClear	;wreg free
  3252  0014EA  0012               	return		;funcret
  3253  0014EC                     __end_of_I2C1_Close:
  3254                           	callstack 0
  3255                           
  3256 ;; *************** function _I2C1_StatusFlagsClear *****************
  3257 ;; Defined at:
  3258 ;;		line 482 in file "mcc_generated_files/i2c_host/src/mssp1.c"
  3259 ;; Parameters:    Size  Location     Type
  3260 ;;		None
  3261 ;; Auto vars:     Size  Location     Type
  3262 ;;		None
  3263 ;; Return value:  Size  Location     Type
  3264 ;;                  1    wreg      void 
  3265 ;; Registers used:
  3266 ;;		None
  3267 ;; Tracked objects:
  3268 ;;		On entry : 0/0
  3269 ;;		On exit  : 0/0
  3270 ;;		Unchanged: 0/0
  3271 ;; Data sizes:     COMRAM   BANK0   BANK1   BANK2   BANK3   BANK4   BANK5   BANK6   BANK7   BANK8   BANK9  BANK10  BANK1
      +1  BANK12  BANK13  BANK14
  3272 ;;      Params:         0       0       0       0       0       0       0       0       0       0       0       0       
      +0       0       0       0
  3273 ;;      Locals:         0       0       0       0       0       0       0       0       0       0       0       0       
      +0       0       0       0
  3274 ;;      Temps:          0       0       0       0       0       0       0       0       0       0       0       0       
      +0       0       0       0
  3275 ;;      Totals:         0       0       0       0       0       0       0       0       0       0       0       0       
      +0       0       0       0
  3276 ;;Total ram usage:        0 bytes
  3277 ;; Hardware stack levels used: 1
  3278 ;; This function calls:
  3279 ;;		Nothing
  3280 ;; This function is called by:
  3281 ;;		_I2C1_Close
  3282 ;; This function uses a non-reentrant model
  3283 ;;
  3284                           
  3285                           	psect	text39
  3286  0016AC                     __ptext39:
  3287                           	callstack 0
  3288  0016AC                     _I2C1_StatusFlagsClear:
  3289                           	callstack 25
  3290  0016AC                     
  3291                           ;mcc_generated_files/i2c_host/src/mssp1.c: 484:     SSP1CON1bits.WCOL = 0;
  3292  0016AC  9E95               	bcf	149,7,c	;volatile
  3293                           
  3294                           ;mcc_generated_files/i2c_host/src/mssp1.c: 485:     SSP1CON1bits.SSPOV = 0;
  3295  0016AE  9C95               	bcf	149,6,c	;volatile
  3296  0016B0  0012               	return		;funcret
  3297  0016B2                     __end_of_I2C1_StatusFlagsClear:
  3298                           	callstack 0
  3299                           
  3300 ;; *************** function _I2C1_InterruptClear *****************
  3301 ;; Defined at:
  3302 ;;		line 472 in file "mcc_generated_files/i2c_host/src/mssp1.c"
  3303 ;; Parameters:    Size  Location     Type
  3304 ;;		None
  3305 ;; Auto vars:     Size  Location     Type
  3306 ;;		None
  3307 ;; Return value:  Size  Location     Type
  3308 ;;                  1    wreg      void 
  3309 ;; Registers used:
  3310 ;;		None
  3311 ;; Tracked objects:
  3312 ;;		On entry : 0/0
  3313 ;;		On exit  : 0/0
  3314 ;;		Unchanged: 0/0
  3315 ;; Data sizes:     COMRAM   BANK0   BANK1   BANK2   BANK3   BANK4   BANK5   BANK6   BANK7   BANK8   BANK9  BANK10  BANK1
      +1  BANK12  BANK13  BANK14
  3316 ;;      Params:         0       0       0       0       0       0       0       0       0       0       0       0       
      +0       0       0       0
  3317 ;;      Locals:         0       0       0       0       0       0       0       0       0       0       0       0       
      +0       0       0       0
  3318 ;;      Temps:          0       0       0       0       0       0       0       0       0       0       0       0       
      +0       0       0       0
  3319 ;;      Totals:         0       0       0       0       0       0       0       0       0       0       0       0       
      +0       0       0       0
  3320 ;;Total ram usage:        0 bytes
  3321 ;; Hardware stack levels used: 1
  3322 ;; This function calls:
  3323 ;;		Nothing
  3324 ;; This function is called by:
  3325 ;;		_I2C1_Close
  3326 ;;		_I2C1_EventHandler
  3327 ;; This function uses a non-reentrant model
  3328 ;;
  3329                           
  3330                           	psect	text40
  3331  0016B2                     __ptext40:
  3332                           	callstack 0
  3333  0016B2                     _I2C1_InterruptClear:
  3334                           	callstack 28
  3335  0016B2                     
  3336                           ;mcc_generated_files/i2c_host/src/mssp1.c: 474:     PIR3bits.SSP1IF = 0;
  3337  0016B2  010E               	movlb	14	; () banked
  3338  0016B4  91C8               	bcf	200,0,b	;volatile
  3339  0016B6                     
  3340                           ; BSR set to: 14
  3341  0016B6  0012               	return		;funcret
  3342  0016B8                     __end_of_I2C1_InterruptClear:
  3343                           	callstack 0
  3344                           
  3345 ;; *************** function _I2C1_ErrorInterruptClear *****************
  3346 ;; Defined at:
  3347 ;;		line 477 in file "mcc_generated_files/i2c_host/src/mssp1.c"
  3348 ;; Parameters:    Size  Location     Type
  3349 ;;		None
  3350 ;; Auto vars:     Size  Location     Type
  3351 ;;		None
  3352 ;; Return value:  Size  Location     Type
  3353 ;;                  1    wreg      void 
  3354 ;; Registers used:
  3355 ;;		None
  3356 ;; Tracked objects:
  3357 ;;		On entry : 0/0
  3358 ;;		On exit  : 0/0
  3359 ;;		Unchanged: 0/0
  3360 ;; Data sizes:     COMRAM   BANK0   BANK1   BANK2   BANK3   BANK4   BANK5   BANK6   BANK7   BANK8   BANK9  BANK10  BANK1
      +1  BANK12  BANK13  BANK14
  3361 ;;      Params:         0       0       0       0       0       0       0       0       0       0       0       0       
      +0       0       0       0
  3362 ;;      Locals:         0       0       0       0       0       0       0       0       0       0       0       0       
      +0       0       0       0
  3363 ;;      Temps:          0       0       0       0       0       0       0       0       0       0       0       0       
      +0       0       0       0
  3364 ;;      Totals:         0       0       0       0       0       0       0       0       0       0       0       0       
      +0       0       0       0
  3365 ;;Total ram usage:        0 bytes
  3366 ;; Hardware stack levels used: 1
  3367 ;; This function calls:
  3368 ;;		Nothing
  3369 ;; This function is called by:
  3370 ;;		_I2C1_Close
  3371 ;;		_I2C1_ErrorEventHandler
  3372 ;; This function uses a non-reentrant model
  3373 ;;
  3374                           
  3375                           	psect	text41
  3376  0016B8                     __ptext41:
  3377                           	callstack 0
  3378  0016B8                     _I2C1_ErrorInterruptClear:
  3379                           	callstack 25
  3380  0016B8                     
  3381                           ;mcc_generated_files/i2c_host/src/mssp1.c: 479:     PIR3bits.BCL1IF = 0;
  3382  0016B8  010E               	movlb	14	; () banked
  3383  0016BA  93C8               	bcf	200,1,b	;volatile
  3384  0016BC                     
  3385                           ; BSR set to: 14
  3386  0016BC  0012               	return		;funcret
  3387  0016BE                     __end_of_I2C1_ErrorInterruptClear:
  3388                           	callstack 0
  3389                           
  3390 ;; *************** function _I2C1_BusReset *****************
  3391 ;; Defined at:
  3392 ;;		line 409 in file "mcc_generated_files/i2c_host/src/mssp1.c"
  3393 ;; Parameters:    Size  Location     Type
  3394 ;;		None
  3395 ;; Auto vars:     Size  Location     Type
  3396 ;;		None
  3397 ;; Return value:  Size  Location     Type
  3398 ;;                  1    wreg      void 
  3399 ;; Registers used:
  3400 ;;		None
  3401 ;; Tracked objects:
  3402 ;;		On entry : 0/0
  3403 ;;		On exit  : 0/0
  3404 ;;		Unchanged: 0/0
  3405 ;; Data sizes:     COMRAM   BANK0   BANK1   BANK2   BANK3   BANK4   BANK5   BANK6   BANK7   BANK8   BANK9  BANK10  BANK1
      +1  BANK12  BANK13  BANK14
  3406 ;;      Params:         0       0       0       0       0       0       0       0       0       0       0       0       
      +0       0       0       0
  3407 ;;      Locals:         0       0       0       0       0       0       0       0       0       0       0       0       
      +0       0       0       0
  3408 ;;      Temps:          0       0       0       0       0       0       0       0       0       0       0       0       
      +0       0       0       0
  3409 ;;      Totals:         0       0       0       0       0       0       0       0       0       0       0       0       
      +0       0       0       0
  3410 ;;Total ram usage:        0 bytes
  3411 ;; Hardware stack levels used: 1
  3412 ;; This function calls:
  3413 ;;		Nothing
  3414 ;; This function is called by:
  3415 ;;		_I2C1_EVENT_RESET
  3416 ;; This function uses a non-reentrant model
  3417 ;;
  3418                           
  3419                           	psect	text42
  3420  0016BE                     __ptext42:
  3421                           	callstack 0
  3422  0016BE                     _I2C1_BusReset:
  3423                           	callstack 27
  3424  0016BE                     
  3425                           ;mcc_generated_files/i2c_host/src/mssp1.c: 411:     SSP1CON1bits.SSPEN = 0;
  3426  0016BE  9A95               	bcf	149,5,c	;volatile
  3427                           
  3428                           ;mcc_generated_files/i2c_host/src/mssp1.c: 412:     SSP1CON1bits.SSPEN = 1;
  3429  0016C0  8A95               	bsf	149,5,c	;volatile
  3430  0016C2  0012               	return		;funcret
  3431  0016C4                     __end_of_I2C1_BusReset:
  3432                           	callstack 0
  3433                           
  3434 ;; *************** function _I2C1_DefaultCallback *****************
  3435 ;; Defined at:
  3436 ;;		line 286 in file "mcc_generated_files/i2c_host/src/mssp1.c"
  3437 ;; Parameters:    Size  Location     Type
  3438 ;;		None
  3439 ;; Auto vars:     Size  Location     Type
  3440 ;;		None
  3441 ;; Return value:  Size  Location     Type
  3442 ;;                  1    wreg      void 
  3443 ;; Registers used:
  3444 ;;		None
  3445 ;; Tracked objects:
  3446 ;;		On entry : 0/0
  3447 ;;		On exit  : 0/0
  3448 ;;		Unchanged: 0/0
  3449 ;; Data sizes:     COMRAM   BANK0   BANK1   BANK2   BANK3   BANK4   BANK5   BANK6   BANK7   BANK8   BANK9  BANK10  BANK1
      +1  BANK12  BANK13  BANK14
  3450 ;;      Params:         0       0       0       0       0       0       0       0       0       0       0       0       
      +0       0       0       0
  3451 ;;      Locals:         0       0       0       0       0       0       0       0       0       0       0       0       
      +0       0       0       0
  3452 ;;      Temps:          0       0       0       0       0       0       0       0       0       0       0       0       
      +0       0       0       0
  3453 ;;      Totals:         0       0       0       0       0       0       0       0       0       0       0       0       
      +0       0       0       0
  3454 ;;Total ram usage:        0 bytes
  3455 ;; Hardware stack levels used: 1
  3456 ;; This function calls:
  3457 ;;		Nothing
  3458 ;; This function is called by:
  3459 ;;		_I2C1_Initialize
  3460 ;;		_I2C1_Deinitialize
  3461 ;;		_I2C1_ErrorEventHandler
  3462 ;; This function uses a non-reentrant model
  3463 ;;
  3464                           
  3465                           	psect	text43
  3466  0016DE                     __ptext43:
  3467                           	callstack 0
  3468  0016DE                     _I2C1_DefaultCallback:
  3469                           	callstack 28
  3470  0016DE  0012               	return		;funcret
  3471  0016E0                     __end_of_I2C1_DefaultCallback:
  3472                           	callstack 0
  3473                           
  3474 ;; *************** function _I2C1_ErrorGet *****************
  3475 ;; Defined at:
  3476 ;;		line 195 in file "mcc_generated_files/i2c_host/src/mssp1.c"
  3477 ;; Parameters:    Size  Location     Type
  3478 ;;		None
  3479 ;; Auto vars:     Size  Location     Type
  3480 ;;  retErrorStat    1    0[COMRAM] enum E12995
  3481 ;; Return value:  Size  Location     Type
  3482 ;;                  1    wreg      enum E12995
  3483 ;; Registers used:
  3484 ;;		wreg, status,2
  3485 ;; Tracked objects:
  3486 ;;		On entry : 0/0
  3487 ;;		On exit  : 0/0
  3488 ;;		Unchanged: 0/0
  3489 ;; Data sizes:     COMRAM   BANK0   BANK1   BANK2   BANK3   BANK4   BANK5   BANK6   BANK7   BANK8   BANK9  BANK10  BANK1
      +1  BANK12  BANK13  BANK14
  3490 ;;      Params:         0       0       0       0       0       0       0       0       0       0       0       0       
      +0       0       0       0
  3491 ;;      Locals:         1       0       0       0       0       0       0       0       0       0       0       0       
      +0       0       0       0
  3492 ;;      Temps:          0       0       0       0       0       0       0       0       0       0       0       0       
      +0       0       0       0
  3493 ;;      Totals:         1       0       0       0       0       0       0       0       0       0       0       0       
      +0       0       0       0
  3494 ;;Total ram usage:        1 bytes
  3495 ;; Hardware stack levels used: 1
  3496 ;; This function calls:
  3497 ;;		Nothing
  3498 ;; This function is called by:
  3499 ;;		_main
  3500 ;; This function uses a non-reentrant model
  3501 ;;
  3502                           
  3503                           	psect	text44
  3504  001666                     __ptext44:
  3505                           	callstack 0
  3506  001666                     _I2C1_ErrorGet:
  3507                           	callstack 30
  3508  001666                     
  3509                           ;mcc_generated_files/i2c_host/src/mssp1.c: 197:     i2c_host_error_t retErrorState = i2c
      +                          1Status.errorState;
  3510  001666  C00D  F01B         	movff	_i2c1Status+12,I2C1_ErrorGet@retErrorState	;volatile
  3511  00166A                     
  3512                           ;mcc_generated_files/i2c_host/src/mssp1.c: 198:     i2c1Status.errorState = I2C_ERROR_NO
      +                          NE;
  3513  00166A  0E00               	movlw	0
  3514  00166C  6E0D               	movwf	(_i2c1Status+12)^0,c	;volatile
  3515                           
  3516                           ;mcc_generated_files/i2c_host/src/mssp1.c: 199:     return retErrorState;
  3517  00166E  501B               	movf	I2C1_ErrorGet@retErrorState^0,w,c
  3518  001670  0012               	return		;funcret
  3519  001672                     __end_of_I2C1_ErrorGet:
  3520                           	callstack 0
  3521                           
  3522                           	psect	text45
  3523  000000                     __ptext45:
  3524                           	callstack 0
  3525  000000                     
  3526                           	psect	rparam
  3527  0000                     
  3528                           	psect	idloc
  3529                           
  3530                           ;Config register IDLOC0 @ 0x200000
  3531                           ;	unspecified, using default values
  3532  200000                     	org	2097152
  3533  200000  FFFF               	dw	65535
  3534                           
  3535                           ;Config register IDLOC1 @ 0x200002
  3536                           ;	unspecified, using default values
  3537  200002                     	org	2097154
  3538  200002  FFFF               	dw	65535
  3539                           
  3540                           ;Config register IDLOC2 @ 0x200004
  3541                           ;	unspecified, using default values
  3542  200004                     	org	2097156
  3543  200004  FFFF               	dw	65535
  3544                           
  3545                           ;Config register IDLOC3 @ 0x200006
  3546                           ;	unspecified, using default values
  3547  200006                     	org	2097158
  3548  200006  FFFF               	dw	65535
  3549                           
  3550                           ;Config register IDLOC4 @ 0x200008
  3551                           ;	unspecified, using default values
  3552  200008                     	org	2097160
  3553  200008  FFFF               	dw	65535
  3554                           
  3555                           ;Config register IDLOC5 @ 0x20000A
  3556                           ;	unspecified, using default values
  3557  20000A                     	org	2097162
  3558  20000A  FFFF               	dw	65535
  3559                           
  3560                           ;Config register IDLOC6 @ 0x20000C
  3561                           ;	unspecified, using default values
  3562  20000C                     	org	2097164
  3563  20000C  FFFF               	dw	65535
  3564                           
  3565                           ;Config register IDLOC7 @ 0x20000E
  3566                           ;	unspecified, using default values
  3567  20000E                     	org	2097166
  3568  20000E  FFFF               	dw	65535
  3569                           
  3570                           ;Config register IDLOC8 @ 0x200010
  3571                           ;	unspecified, using default values
  3572  200010                     	org	2097168
  3573  200010  FFFF               	dw	65535
  3574                           
  3575                           ;Config register IDLOC9 @ 0x200012
  3576                           ;	unspecified, using default values
  3577  200012                     	org	2097170
  3578  200012  FFFF               	dw	65535
  3579                           
  3580                           ;Config register IDLOC10 @ 0x200014
  3581                           ;	unspecified, using default values
  3582  200014                     	org	2097172
  3583  200014  FFFF               	dw	65535
  3584                           
  3585                           ;Config register IDLOC11 @ 0x200016
  3586                           ;	unspecified, using default values
  3587  200016                     	org	2097174
  3588  200016  FFFF               	dw	65535
  3589                           
  3590                           ;Config register IDLOC12 @ 0x200018
  3591                           ;	unspecified, using default values
  3592  200018                     	org	2097176
  3593  200018  FFFF               	dw	65535
  3594                           
  3595                           ;Config register IDLOC13 @ 0x20001A
  3596                           ;	unspecified, using default values
  3597  20001A                     	org	2097178
  3598  20001A  FFFF               	dw	65535
  3599                           
  3600                           ;Config register IDLOC14 @ 0x20001C
  3601                           ;	unspecified, using default values
  3602  20001C                     	org	2097180
  3603  20001C  FFFF               	dw	65535
  3604                           
  3605                           ;Config register IDLOC15 @ 0x20001E
  3606                           ;	unspecified, using default values
  3607  20001E                     	org	2097182
  3608  20001E  FFFF               	dw	65535
  3609                           
  3610                           ;Config register IDLOC16 @ 0x200020
  3611                           ;	unspecified, using default values
  3612  200020                     	org	2097184
  3613  200020  FFFF               	dw	65535
  3614                           
  3615                           ;Config register IDLOC17 @ 0x200022
  3616                           ;	unspecified, using default values
  3617  200022                     	org	2097186
  3618  200022  FFFF               	dw	65535
  3619                           
  3620                           ;Config register IDLOC18 @ 0x200024
  3621                           ;	unspecified, using default values
  3622  200024                     	org	2097188
  3623  200024  FFFF               	dw	65535
  3624                           
  3625                           ;Config register IDLOC19 @ 0x200026
  3626                           ;	unspecified, using default values
  3627  200026                     	org	2097190
  3628  200026  FFFF               	dw	65535
  3629                           
  3630                           ;Config register IDLOC20 @ 0x200028
  3631                           ;	unspecified, using default values
  3632  200028                     	org	2097192
  3633  200028  FFFF               	dw	65535
  3634                           
  3635                           ;Config register IDLOC21 @ 0x20002A
  3636                           ;	unspecified, using default values
  3637  20002A                     	org	2097194
  3638  20002A  FFFF               	dw	65535
  3639                           
  3640                           ;Config register IDLOC22 @ 0x20002C
  3641                           ;	unspecified, using default values
  3642  20002C                     	org	2097196
  3643  20002C  FFFF               	dw	65535
  3644                           
  3645                           ;Config register IDLOC23 @ 0x20002E
  3646                           ;	unspecified, using default values
  3647  20002E                     	org	2097198
  3648  20002E  FFFF               	dw	65535
  3649                           
  3650                           ;Config register IDLOC24 @ 0x200030
  3651                           ;	unspecified, using default values
  3652  200030                     	org	2097200
  3653  200030  FFFF               	dw	65535
  3654                           
  3655                           ;Config register IDLOC25 @ 0x200032
  3656                           ;	unspecified, using default values
  3657  200032                     	org	2097202
  3658  200032  FFFF               	dw	65535
  3659                           
  3660                           ;Config register IDLOC26 @ 0x200034
  3661                           ;	unspecified, using default values
  3662  200034                     	org	2097204
  3663  200034  FFFF               	dw	65535
  3664                           
  3665                           ;Config register IDLOC27 @ 0x200036
  3666                           ;	unspecified, using default values
  3667  200036                     	org	2097206
  3668  200036  FFFF               	dw	65535
  3669                           
  3670                           ;Config register IDLOC28 @ 0x200038
  3671                           ;	unspecified, using default values
  3672  200038                     	org	2097208
  3673  200038  FFFF               	dw	65535
  3674                           
  3675                           ;Config register IDLOC29 @ 0x20003A
  3676                           ;	unspecified, using default values
  3677  20003A                     	org	2097210
  3678  20003A  FFFF               	dw	65535
  3679                           
  3680                           ;Config register IDLOC30 @ 0x20003C
  3681                           ;	unspecified, using default values
  3682  20003C                     	org	2097212
  3683  20003C  FFFF               	dw	65535
  3684                           
  3685                           ;Config register IDLOC31 @ 0x20003E
  3686                           ;	unspecified, using default values
  3687  20003E                     	org	2097214
  3688  20003E  FFFF               	dw	65535
  3689                           
  3690                           ;Config register IDLOC32 @ 0x200040
  3691                           ;	unspecified, using default values
  3692  200040                     	org	2097216
  3693  200040  FFFF               	dw	65535
  3694                           
  3695                           ;Config register IDLOC33 @ 0x200042
  3696                           ;	unspecified, using default values
  3697  200042                     	org	2097218
  3698  200042  FFFF               	dw	65535
  3699                           
  3700                           ;Config register IDLOC34 @ 0x200044
  3701                           ;	unspecified, using default values
  3702  200044                     	org	2097220
  3703  200044  FFFF               	dw	65535
  3704                           
  3705                           ;Config register IDLOC35 @ 0x200046
  3706                           ;	unspecified, using default values
  3707  200046                     	org	2097222
  3708  200046  FFFF               	dw	65535
  3709                           
  3710                           ;Config register IDLOC36 @ 0x200048
  3711                           ;	unspecified, using default values
  3712  200048                     	org	2097224
  3713  200048  FFFF               	dw	65535
  3714                           
  3715                           ;Config register IDLOC37 @ 0x20004A
  3716                           ;	unspecified, using default values
  3717  20004A                     	org	2097226
  3718  20004A  FFFF               	dw	65535
  3719                           
  3720                           ;Config register IDLOC38 @ 0x20004C
  3721                           ;	unspecified, using default values
  3722  20004C                     	org	2097228
  3723  20004C  FFFF               	dw	65535
  3724                           
  3725                           ;Config register IDLOC39 @ 0x20004E
  3726                           ;	unspecified, using default values
  3727  20004E                     	org	2097230
  3728  20004E  FFFF               	dw	65535
  3729                           
  3730                           ;Config register IDLOC40 @ 0x200050
  3731                           ;	unspecified, using default values
  3732  200050                     	org	2097232
  3733  200050  FFFF               	dw	65535
  3734                           
  3735                           ;Config register IDLOC41 @ 0x200052
  3736                           ;	unspecified, using default values
  3737  200052                     	org	2097234
  3738  200052  FFFF               	dw	65535
  3739                           
  3740                           ;Config register IDLOC42 @ 0x200054
  3741                           ;	unspecified, using default values
  3742  200054                     	org	2097236
  3743  200054  FFFF               	dw	65535
  3744                           
  3745                           ;Config register IDLOC43 @ 0x200056
  3746                           ;	unspecified, using default values
  3747  200056                     	org	2097238
  3748  200056  FFFF               	dw	65535
  3749                           
  3750                           ;Config register IDLOC44 @ 0x200058
  3751                           ;	unspecified, using default values
  3752  200058                     	org	2097240
  3753  200058  FFFF               	dw	65535
  3754                           
  3755                           ;Config register IDLOC45 @ 0x20005A
  3756                           ;	unspecified, using default values
  3757  20005A                     	org	2097242
  3758  20005A  FFFF               	dw	65535
  3759                           
  3760                           ;Config register IDLOC46 @ 0x20005C
  3761                           ;	unspecified, using default values
  3762  20005C                     	org	2097244
  3763  20005C  FFFF               	dw	65535
  3764                           
  3765                           ;Config register IDLOC47 @ 0x20005E
  3766                           ;	unspecified, using default values
  3767  20005E                     	org	2097246
  3768  20005E  FFFF               	dw	65535
  3769                           
  3770                           ;Config register IDLOC48 @ 0x200060
  3771                           ;	unspecified, using default values
  3772  200060                     	org	2097248
  3773  200060  FFFF               	dw	65535
  3774                           
  3775                           ;Config register IDLOC49 @ 0x200062
  3776                           ;	unspecified, using default values
  3777  200062                     	org	2097250
  3778  200062  FFFF               	dw	65535
  3779                           
  3780                           ;Config register IDLOC50 @ 0x200064
  3781                           ;	unspecified, using default values
  3782  200064                     	org	2097252
  3783  200064  FFFF               	dw	65535
  3784                           
  3785                           ;Config register IDLOC51 @ 0x200066
  3786                           ;	unspecified, using default values
  3787  200066                     	org	2097254
  3788  200066  FFFF               	dw	65535
  3789                           
  3790                           ;Config register IDLOC52 @ 0x200068
  3791                           ;	unspecified, using default values
  3792  200068                     	org	2097256
  3793  200068  FFFF               	dw	65535
  3794                           
  3795                           ;Config register IDLOC53 @ 0x20006A
  3796                           ;	unspecified, using default values
  3797  20006A                     	org	2097258
  3798  20006A  FFFF               	dw	65535
  3799                           
  3800                           ;Config register IDLOC54 @ 0x20006C
  3801                           ;	unspecified, using default values
  3802  20006C                     	org	2097260
  3803  20006C  FFFF               	dw	65535
  3804                           
  3805                           ;Config register IDLOC55 @ 0x20006E
  3806                           ;	unspecified, using default values
  3807  20006E                     	org	2097262
  3808  20006E  FFFF               	dw	65535
  3809                           
  3810                           ;Config register IDLOC56 @ 0x200070
  3811                           ;	unspecified, using default values
  3812  200070                     	org	2097264
  3813  200070  FFFF               	dw	65535
  3814                           
  3815                           ;Config register IDLOC57 @ 0x200072
  3816                           ;	unspecified, using default values
  3817  200072                     	org	2097266
  3818  200072  FFFF               	dw	65535
  3819                           
  3820                           ;Config register IDLOC58 @ 0x200074
  3821                           ;	unspecified, using default values
  3822  200074                     	org	2097268
  3823  200074  FFFF               	dw	65535
  3824                           
  3825                           ;Config register IDLOC59 @ 0x200076
  3826                           ;	unspecified, using default values
  3827  200076                     	org	2097270
  3828  200076  FFFF               	dw	65535
  3829                           
  3830                           ;Config register IDLOC60 @ 0x200078
  3831                           ;	unspecified, using default values
  3832  200078                     	org	2097272
  3833  200078  FFFF               	dw	65535
  3834                           
  3835                           ;Config register IDLOC61 @ 0x20007A
  3836                           ;	unspecified, using default values
  3837  20007A                     	org	2097274
  3838  20007A  FFFF               	dw	65535
  3839                           
  3840                           ;Config register IDLOC62 @ 0x20007C
  3841                           ;	unspecified, using default values
  3842  20007C                     	org	2097276
  3843  20007C  FFFF               	dw	65535
  3844                           
  3845                           ;Config register IDLOC63 @ 0x20007E
  3846                           ;	unspecified, using default values
  3847  20007E                     	org	2097278
  3848  20007E  FFFF               	dw	65535
  3849                           
  3850                           ;Config register IDLOC64 @ 0x200080
  3851                           ;	unspecified, using default values
  3852  200080                     	org	2097280
  3853  200080  FFFF               	dw	65535
  3854                           
  3855                           ;Config register IDLOC65 @ 0x200082
  3856                           ;	unspecified, using default values
  3857  200082                     	org	2097282
  3858  200082  FFFF               	dw	65535
  3859                           
  3860                           ;Config register IDLOC66 @ 0x200084
  3861                           ;	unspecified, using default values
  3862  200084                     	org	2097284
  3863  200084  FFFF               	dw	65535
  3864                           
  3865                           ;Config register IDLOC67 @ 0x200086
  3866                           ;	unspecified, using default values
  3867  200086                     	org	2097286
  3868  200086  FFFF               	dw	65535
  3869                           
  3870                           ;Config register IDLOC68 @ 0x200088
  3871                           ;	unspecified, using default values
  3872  200088                     	org	2097288
  3873  200088  FFFF               	dw	65535
  3874                           
  3875                           ;Config register IDLOC69 @ 0x20008A
  3876                           ;	unspecified, using default values
  3877  20008A                     	org	2097290
  3878  20008A  FFFF               	dw	65535
  3879                           
  3880                           ;Config register IDLOC70 @ 0x20008C
  3881                           ;	unspecified, using default values
  3882  20008C                     	org	2097292
  3883  20008C  FFFF               	dw	65535
  3884                           
  3885                           ;Config register IDLOC71 @ 0x20008E
  3886                           ;	unspecified, using default values
  3887  20008E                     	org	2097294
  3888  20008E  FFFF               	dw	65535
  3889                           
  3890                           ;Config register IDLOC72 @ 0x200090
  3891                           ;	unspecified, using default values
  3892  200090                     	org	2097296
  3893  200090  FFFF               	dw	65535
  3894                           
  3895                           ;Config register IDLOC73 @ 0x200092
  3896                           ;	unspecified, using default values
  3897  200092                     	org	2097298
  3898  200092  FFFF               	dw	65535
  3899                           
  3900                           ;Config register IDLOC74 @ 0x200094
  3901                           ;	unspecified, using default values
  3902  200094                     	org	2097300
  3903  200094  FFFF               	dw	65535
  3904                           
  3905                           ;Config register IDLOC75 @ 0x200096
  3906                           ;	unspecified, using default values
  3907  200096                     	org	2097302
  3908  200096  FFFF               	dw	65535
  3909                           
  3910                           ;Config register IDLOC76 @ 0x200098
  3911                           ;	unspecified, using default values
  3912  200098                     	org	2097304
  3913  200098  FFFF               	dw	65535
  3914                           
  3915                           ;Config register IDLOC77 @ 0x20009A
  3916                           ;	unspecified, using default values
  3917  20009A                     	org	2097306
  3918  20009A  FFFF               	dw	65535
  3919                           
  3920                           ;Config register IDLOC78 @ 0x20009C
  3921                           ;	unspecified, using default values
  3922  20009C                     	org	2097308
  3923  20009C  FFFF               	dw	65535
  3924                           
  3925                           ;Config register IDLOC79 @ 0x20009E
  3926                           ;	unspecified, using default values
  3927  20009E                     	org	2097310
  3928  20009E  FFFF               	dw	65535
  3929                           
  3930                           ;Config register IDLOC80 @ 0x2000A0
  3931                           ;	unspecified, using default values
  3932  2000A0                     	org	2097312
  3933  2000A0  FFFF               	dw	65535
  3934                           
  3935                           ;Config register IDLOC81 @ 0x2000A2
  3936                           ;	unspecified, using default values
  3937  2000A2                     	org	2097314
  3938  2000A2  FFFF               	dw	65535
  3939                           
  3940                           ;Config register IDLOC82 @ 0x2000A4
  3941                           ;	unspecified, using default values
  3942  2000A4                     	org	2097316
  3943  2000A4  FFFF               	dw	65535
  3944                           
  3945                           ;Config register IDLOC83 @ 0x2000A6
  3946                           ;	unspecified, using default values
  3947  2000A6                     	org	2097318
  3948  2000A6  FFFF               	dw	65535
  3949                           
  3950                           ;Config register IDLOC84 @ 0x2000A8
  3951                           ;	unspecified, using default values
  3952  2000A8                     	org	2097320
  3953  2000A8  FFFF               	dw	65535
  3954                           
  3955                           ;Config register IDLOC85 @ 0x2000AA
  3956                           ;	unspecified, using default values
  3957  2000AA                     	org	2097322
  3958  2000AA  FFFF               	dw	65535
  3959                           
  3960                           ;Config register IDLOC86 @ 0x2000AC
  3961                           ;	unspecified, using default values
  3962  2000AC                     	org	2097324
  3963  2000AC  FFFF               	dw	65535
  3964                           
  3965                           ;Config register IDLOC87 @ 0x2000AE
  3966                           ;	unspecified, using default values
  3967  2000AE                     	org	2097326
  3968  2000AE  FFFF               	dw	65535
  3969                           
  3970                           ;Config register IDLOC88 @ 0x2000B0
  3971                           ;	unspecified, using default values
  3972  2000B0                     	org	2097328
  3973  2000B0  FFFF               	dw	65535
  3974                           
  3975                           ;Config register IDLOC89 @ 0x2000B2
  3976                           ;	unspecified, using default values
  3977  2000B2                     	org	2097330
  3978  2000B2  FFFF               	dw	65535
  3979                           
  3980                           ;Config register IDLOC90 @ 0x2000B4
  3981                           ;	unspecified, using default values
  3982  2000B4                     	org	2097332
  3983  2000B4  FFFF               	dw	65535
  3984                           
  3985                           ;Config register IDLOC91 @ 0x2000B6
  3986                           ;	unspecified, using default values
  3987  2000B6                     	org	2097334
  3988  2000B6  FFFF               	dw	65535
  3989                           
  3990                           ;Config register IDLOC92 @ 0x2000B8
  3991                           ;	unspecified, using default values
  3992  2000B8                     	org	2097336
  3993  2000B8  FFFF               	dw	65535
  3994                           
  3995                           ;Config register IDLOC93 @ 0x2000BA
  3996                           ;	unspecified, using default values
  3997  2000BA                     	org	2097338
  3998  2000BA  FFFF               	dw	65535
  3999                           
  4000                           ;Config register IDLOC94 @ 0x2000BC
  4001                           ;	unspecified, using default values
  4002  2000BC                     	org	2097340
  4003  2000BC  FFFF               	dw	65535
  4004                           
  4005                           ;Config register IDLOC95 @ 0x2000BE
  4006                           ;	unspecified, using default values
  4007  2000BE                     	org	2097342
  4008  2000BE  FFFF               	dw	65535
  4009                           
  4010                           ;Config register IDLOC96 @ 0x2000C0
  4011                           ;	unspecified, using default values
  4012  2000C0                     	org	2097344
  4013  2000C0  FFFF               	dw	65535
  4014                           
  4015                           ;Config register IDLOC97 @ 0x2000C2
  4016                           ;	unspecified, using default values
  4017  2000C2                     	org	2097346
  4018  2000C2  FFFF               	dw	65535
  4019                           
  4020                           ;Config register IDLOC98 @ 0x2000C4
  4021                           ;	unspecified, using default values
  4022  2000C4                     	org	2097348
  4023  2000C4  FFFF               	dw	65535
  4024                           
  4025                           ;Config register IDLOC99 @ 0x2000C6
  4026                           ;	unspecified, using default values
  4027  2000C6                     	org	2097350
  4028  2000C6  FFFF               	dw	65535
  4029                           
  4030                           ;Config register IDLOC100 @ 0x2000C8
  4031                           ;	unspecified, using default values
  4032  2000C8                     	org	2097352
  4033  2000C8  FFFF               	dw	65535
  4034                           
  4035                           ;Config register IDLOC101 @ 0x2000CA
  4036                           ;	unspecified, using default values
  4037  2000CA                     	org	2097354
  4038  2000CA  FFFF               	dw	65535
  4039                           
  4040                           ;Config register IDLOC102 @ 0x2000CC
  4041                           ;	unspecified, using default values
  4042  2000CC                     	org	2097356
  4043  2000CC  FFFF               	dw	65535
  4044                           
  4045                           ;Config register IDLOC103 @ 0x2000CE
  4046                           ;	unspecified, using default values
  4047  2000CE                     	org	2097358
  4048  2000CE  FFFF               	dw	65535
  4049                           
  4050                           ;Config register IDLOC104 @ 0x2000D0
  4051                           ;	unspecified, using default values
  4052  2000D0                     	org	2097360
  4053  2000D0  FFFF               	dw	65535
  4054                           
  4055                           ;Config register IDLOC105 @ 0x2000D2
  4056                           ;	unspecified, using default values
  4057  2000D2                     	org	2097362
  4058  2000D2  FFFF               	dw	65535
  4059                           
  4060                           ;Config register IDLOC106 @ 0x2000D4
  4061                           ;	unspecified, using default values
  4062  2000D4                     	org	2097364
  4063  2000D4  FFFF               	dw	65535
  4064                           
  4065                           ;Config register IDLOC107 @ 0x2000D6
  4066                           ;	unspecified, using default values
  4067  2000D6                     	org	2097366
  4068  2000D6  FFFF               	dw	65535
  4069                           
  4070                           ;Config register IDLOC108 @ 0x2000D8
  4071                           ;	unspecified, using default values
  4072  2000D8                     	org	2097368
  4073  2000D8  FFFF               	dw	65535
  4074                           
  4075                           ;Config register IDLOC109 @ 0x2000DA
  4076                           ;	unspecified, using default values
  4077  2000DA                     	org	2097370
  4078  2000DA  FFFF               	dw	65535
  4079                           
  4080                           ;Config register IDLOC110 @ 0x2000DC
  4081                           ;	unspecified, using default values
  4082  2000DC                     	org	2097372
  4083  2000DC  FFFF               	dw	65535
  4084                           
  4085                           ;Config register IDLOC111 @ 0x2000DE
  4086                           ;	unspecified, using default values
  4087  2000DE                     	org	2097374
  4088  2000DE  FFFF               	dw	65535
  4089                           
  4090                           ;Config register IDLOC112 @ 0x2000E0
  4091                           ;	unspecified, using default values
  4092  2000E0                     	org	2097376
  4093  2000E0  FFFF               	dw	65535
  4094                           
  4095                           ;Config register IDLOC113 @ 0x2000E2
  4096                           ;	unspecified, using default values
  4097  2000E2                     	org	2097378
  4098  2000E2  FFFF               	dw	65535
  4099                           
  4100                           ;Config register IDLOC114 @ 0x2000E4
  4101                           ;	unspecified, using default values
  4102  2000E4                     	org	2097380
  4103  2000E4  FFFF               	dw	65535
  4104                           
  4105                           ;Config register IDLOC115 @ 0x2000E6
  4106                           ;	unspecified, using default values
  4107  2000E6                     	org	2097382
  4108  2000E6  FFFF               	dw	65535
  4109                           
  4110                           ;Config register IDLOC116 @ 0x2000E8
  4111                           ;	unspecified, using default values
  4112  2000E8                     	org	2097384
  4113  2000E8  FFFF               	dw	65535
  4114                           
  4115                           ;Config register IDLOC117 @ 0x2000EA
  4116                           ;	unspecified, using default values
  4117  2000EA                     	org	2097386
  4118  2000EA  FFFF               	dw	65535
  4119                           
  4120                           ;Config register IDLOC118 @ 0x2000EC
  4121                           ;	unspecified, using default values
  4122  2000EC                     	org	2097388
  4123  2000EC  FFFF               	dw	65535
  4124                           
  4125                           ;Config register IDLOC119 @ 0x2000EE
  4126                           ;	unspecified, using default values
  4127  2000EE                     	org	2097390
  4128  2000EE  FFFF               	dw	65535
  4129                           
  4130                           ;Config register IDLOC120 @ 0x2000F0
  4131                           ;	unspecified, using default values
  4132  2000F0                     	org	2097392
  4133  2000F0  FFFF               	dw	65535
  4134                           
  4135                           ;Config register IDLOC121 @ 0x2000F2
  4136                           ;	unspecified, using default values
  4137  2000F2                     	org	2097394
  4138  2000F2  FFFF               	dw	65535
  4139                           
  4140                           ;Config register IDLOC122 @ 0x2000F4
  4141                           ;	unspecified, using default values
  4142  2000F4                     	org	2097396
  4143  2000F4  FFFF               	dw	65535
  4144                           
  4145                           ;Config register IDLOC123 @ 0x2000F6
  4146                           ;	unspecified, using default values
  4147  2000F6                     	org	2097398
  4148  2000F6  FFFF               	dw	65535
  4149                           
  4150                           ;Config register IDLOC124 @ 0x2000F8
  4151                           ;	unspecified, using default values
  4152  2000F8                     	org	2097400
  4153  2000F8  FFFF               	dw	65535
  4154                           
  4155                           ;Config register IDLOC125 @ 0x2000FA
  4156                           ;	unspecified, using default values
  4157  2000FA                     	org	2097402
  4158  2000FA  FFFF               	dw	65535
  4159                           
  4160                           ;Config register IDLOC126 @ 0x2000FC
  4161                           ;	unspecified, using default values
  4162  2000FC                     	org	2097404
  4163  2000FC  FFFF               	dw	65535
  4164                           
  4165                           ;Config register IDLOC127 @ 0x2000FE
  4166                           ;	unspecified, using default values
  4167  2000FE                     	org	2097406
  4168  2000FE  FFFF               	dw	65535
  4169                           
  4170                           	psect	config
  4171                           
  4172                           ;Config register CONFIG1L @ 0x300000
  4173                           ;	External Oscillator mode Selection bits
  4174                           ;	FEXTOSC = ECH, EC (external clock) above 8 MHz; PFM set to high power
  4175                           ;	Power-up default value for COSC bits
  4176                           ;	RSTOSC = EXTOSC, EXTOSC operating per FEXTOSC bits (device manufacturing default)
  4177  300000                     	org	3145728
  4178  300000  FF                 	db	255
  4179                           
  4180                           ;Config register CONFIG1H @ 0x300001
  4181                           ;	Clock Out Enable bit
  4182                           ;	CLKOUTEN = OFF, CLKOUT function is disabled
  4183                           ;	Clock Switch Enable bit
  4184                           ;	CSWEN = ON, Writing to NOSC and NDIV is allowed
  4185                           ;	Fail-Safe Clock Monitor Enable bit
  4186                           ;	FCMEN = ON, Fail-Safe Clock Monitor enabled
  4187  300001                     	org	3145729
  4188  300001  FF                 	db	255
  4189                           
  4190                           ;Config register CONFIG2L @ 0x300002
  4191                           ;	Master Clear Enable bit
  4192                           ;	MCLRE = EXTMCLR, MCLR pin (RE3) is MCLR
  4193                           ;	Power-up Timer Enable bit
  4194                           ;	PWRTE = OFF, Power up timer disabled
  4195                           ;	Low-power BOR enable bit
  4196                           ;	LPBOREN = OFF, Low power BOR is disabled
  4197                           ;	Brown-out Reset Enable bits
  4198                           ;	BOREN = SBORDIS, Brown-out Reset enabled , SBOREN bit is ignored
  4199  300002                     	org	3145730
  4200  300002  FF                 	db	255
  4201                           
  4202                           ;Config register CONFIG2H @ 0x300003
  4203                           ;	Brown Out Reset Voltage selection bits
  4204                           ;	BORV = VBOR_190, Brown-out Reset Voltage (VBOR) set to 1.90V
  4205                           ;	ZCD Disable bit
  4206                           ;	ZCD = OFF, ZCD disabled. ZCD can be enabled by setting the ZCDSEN bit of ZCDCON
  4207                           ;	PPSLOCK bit One-Way Set Enable bit
  4208                           ;	PPS1WAY = ON, PPSLOCK bit can be cleared and set only once; PPS registers remain locke
      +                          d after one clear/set cycle
  4209                           ;	Stack Full/Underflow Reset Enable bit
  4210                           ;	STVREN = ON, Stack full/underflow will cause Reset
  4211                           ;	Extended Instruction Set Enable bit
  4212                           ;	XINST = OFF, Extended Instruction Set and Indexed Addressing Mode disabled
  4213  300003                     	org	3145731
  4214  300003  FF                 	db	255
  4215                           
  4216                           ;Config register CONFIG3L @ 0x300004
  4217                           ;	WDT Period Select bits
  4218                           ;	WDTCPS = WDTCPS_31, Divider ratio 1:65536; software control of WDTPS
  4219                           ;	WDT operating mode
  4220                           ;	WDTE = OFF, WDT Disabled
  4221  300004                     	org	3145732
  4222  300004  9F                 	db	159
  4223                           
  4224                           ;Config register CONFIG3H @ 0x300005
  4225                           ;	WDT Window Select bits
  4226                           ;	WDTCWS = WDTCWS_7, window always open (100%); software control; keyed access not requi
      +                          red
  4227                           ;	WDT input clock selector
  4228                           ;	WDTCCS = SC, Software Control
  4229  300005                     	org	3145733
  4230  300005  FF                 	db	255
  4231                           
  4232                           ;Config register CONFIG4L @ 0x300006
  4233                           ;	Write Protection Block 0
  4234                           ;	WRT0 = OFF, Block 0 (000800-003FFFh) not write-protected
  4235                           ;	Write Protection Block 1
  4236                           ;	WRT1 = OFF, Block 1 (004000-007FFFh) not write-protected
  4237                           ;	Write Protection Block 2
  4238                           ;	WRT2 = OFF, Block 2 (008000-00BFFFh) not write-protected
  4239                           ;	Write Protection Block 3
  4240                           ;	WRT3 = OFF, Block 3 (00C000-00FFFFh) not write-protected
  4241                           ;	Write Protection Block 4
  4242                           ;	WRT4 = OFF, Block 4 (010000-013FFFh) not write-protected
  4243                           ;	Write Protection Block 5
  4244                           ;	WRT5 = OFF, Block 5 (014000-017FFFh) not write-protected
  4245                           ;	Write Protection Block 6
  4246                           ;	WRT6 = OFF, Block 6 (018000-01BFFFh) not write-protected
  4247                           ;	Write Protection Block 7
  4248                           ;	WRT7 = OFF, Block 7 (01C000-01FFFFh) not write-protected
  4249  300006                     	org	3145734
  4250  300006  FF                 	db	255
  4251                           
  4252                           ;Config register CONFIG4H @ 0x300007
  4253                           ;	Configuration Register Write Protection bit
  4254                           ;	WRTC = OFF, Configuration registers (300000-30000Bh) not write-protected
  4255                           ;	Boot Block Write Protection bit
  4256                           ;	WRTB = OFF, Boot Block (000000-0007FFh) not write-protected
  4257                           ;	Data EEPROM Write Protection bit
  4258                           ;	WRTD = OFF, Data EEPROM not write-protected
  4259                           ;	Scanner Enable bit
  4260                           ;	SCANE = ON, Scanner module is available for use, SCANMD bit can control the module
  4261                           ;	Low Voltage Programming Enable bit
  4262                           ;	LVP = ON, Low voltage programming enabled. MCLR/VPP pin function is MCLR. MCLRE config
      +                          uration bit is ignored
  4263  300007                     	org	3145735
  4264  300007  FF                 	db	255
  4265                           
  4266                           ;Config register CONFIG5L @ 0x300008
  4267                           ;	UserNVM Program Memory Code Protection bit
  4268                           ;	CP = OFF, UserNVM code protection disabled
  4269                           ;	DataNVM Memory Code Protection bit
  4270                           ;	CPD = OFF, DataNVM code protection disabled
  4271  300008                     	org	3145736
  4272  300008  FF                 	db	255
  4273                           
  4274                           ;Config register CONFIG5H @ 0x300009
  4275                           ;	unspecified, using default values
  4276  300009                     	org	3145737
  4277  300009  FF                 	db	255
  4278                           
  4279                           ;Config register CONFIG6L @ 0x30000A
  4280                           ;	Table Read Protection Block 0
  4281                           ;	EBTR0 = OFF, Block 0 (000800-003FFFh) not protected from table reads executed in other
      +                           blocks
  4282                           ;	Table Read Protection Block 1
  4283                           ;	EBTR1 = OFF, Block 1 (004000-007FFFh) not protected from table reads executed in other
      +                           blocks
  4284                           ;	Table Read Protection Block 2
  4285                           ;	EBTR2 = OFF, Block 2 (008000-00BFFFh) not protected from table reads executed in other
      +                           blocks
  4286                           ;	Table Read Protection Block 3
  4287                           ;	EBTR3 = OFF, Block 3 (00C000-00FFFFh) not protected from table reads executed in other
      +                           blocks
  4288                           ;	Table Read Protection Block 4
  4289                           ;	EBTR4 = OFF, Block 4 (010000-013FFFh) not protected from table reads executed in other
      +                           blocks
  4290                           ;	Table Read Protection Block 5
  4291                           ;	EBTR5 = OFF, Block 5 (014000-017FFFh) not protected from table reads executed in other
      +                           blocks
  4292                           ;	Table Read Protection Block 6
  4293                           ;	EBTR6 = OFF, Block 6 (018000-01BFFFh) not protected from table reads executed in other
      +                           blocks
  4294                           ;	Table Read Protection Block 7
  4295                           ;	EBTR7 = OFF, Block 7 (01C000-01FFFFh) not protected from table reads executed in other
      +                           blocks
  4296  30000A                     	org	3145738
  4297  30000A  FF                 	db	255
  4298                           
  4299                           ;Config register CONFIG6H @ 0x30000B
  4300                           ;	Boot Block Table Read Protection bit
  4301                           ;	EBTRB = OFF, Boot Block (000000-0007FFh) not protected from table reads executed in ot
      +                          her blocks
  4302  30000B                     	org	3145739
  4303  30000B  FF                 	db	255
  4304                           tosu	equ	0xFFF
  4305                           tosh	equ	0xFFE
  4306                           tosl	equ	0xFFD
  4307                           stkptr	equ	0xFFC
  4308                           pclatu	equ	0xFFB
  4309                           pclath	equ	0xFFA
  4310                           pcl	equ	0xFF9
  4311                           tblptru	equ	0xFF8
  4312                           tblptrh	equ	0xFF7
  4313                           tblptrl	equ	0xFF6
  4314                           tablat	equ	0xFF5
  4315                           prodh	equ	0xFF4
  4316                           prodl	equ	0xFF3
  4317                           indf0	equ	0xFEF
  4318                           postinc0	equ	0xFEE
  4319                           postdec0	equ	0xFED
  4320                           preinc0	equ	0xFEC
  4321                           plusw0	equ	0xFEB
  4322                           fsr0h	equ	0xFEA
  4323                           fsr0l	equ	0xFE9
  4324                           wreg	equ	0xFE8
  4325                           indf1	equ	0xFE7
  4326                           postinc1	equ	0xFE6
  4327                           postdec1	equ	0xFE5
  4328                           preinc1	equ	0xFE4
  4329                           plusw1	equ	0xFE3
  4330                           fsr1h	equ	0xFE2
  4331                           fsr1l	equ	0xFE1
  4332                           bsr	equ	0xFE0
  4333                           indf2	equ	0xFDF
  4334                           postinc2	equ	0xFDE
  4335                           postdec2	equ	0xFDD
  4336                           preinc2	equ	0xFDC
  4337                           plusw2	equ	0xFDB
  4338                           fsr2h	equ	0xFDA
  4339                           fsr2l	equ	0xFD9
  4340                           status	equ	0xFD8

Data Sizes:
    Strings     0
    Constant    57
    Data        2
    BSS         26
    Persistent  0
    Stack       0

Auto Spaces:
    Space          Size  Autos    Used
    COMRAM           95     12      40
    BANK0           160      0       0
    BANK1           256      0       0
    BANK2           256      0       0
    BANK3           256      0       0
    BANK4           256      0       0
    BANK5           256      0       0
    BANK6           256      0       0
    BANK7           256      0       0
    BANK8           256      0       0
    BANK9           256      0       0
    BANK10          256      0       0
    BANK11          256      0       0
    BANK12          256      0       0
    BANK13          256      0       0
    BANK14           31      0       0

Pointer List with Targets:

    S50$3$1	PTR unsigned char  size(2) Largest target is 0

    S50$4$3	PTR unsigned char  size(2) Largest target is 0

    S50$4$1	PTR unsigned char  size(2) Largest target is 0

    Absolute function$0	PTR struct . size(2) Largest target is 0

    S50$8$0	PTR FTN()void  size(3) Largest target is 1
		 -> I2C1_DefaultCallback(), 

    S50$2$1	PTR unsigned char  size(2) Largest target is 2
		 -> main@data(COMRAM[2]), 

    I2C.Tasks	PTR FTN()void  size(3) Largest target is 1
		 -> I2C1_Tasks(), 

    I2C.CallbackRegister	PTR FTN(PTR FTN()void ,)void  size(3) Largest target is 1
		 -> I2C1_CallbackRegister(), 

    I2C.IsBusy	PTR FTN()_Bool  size(3) Largest target is 1
		 -> I2C1_IsBusy(), 

    I2C.ErrorGet	PTR FTN()enum E12995 size(3) Largest target is 1
		 -> I2C1_ErrorGet(), 

    I2C.TransferSetup	PTR FTN(PTR struct .,unsigned long ,)_Bool  size(3) Largest target is 1
		 -> Absolute function(), 

    I2C.WriteRead	PTR FTN(unsigned short ,PTR unsigned char ,unsigned int ,PTR unsigned char ,unsigned int ,)_Bool  size(3) Largest target is 1
		 -> I2C1_WriteRead(), 

    I2C.Read	PTR FTN(unsigned short ,PTR unsigned char ,unsigned int ,)_Bool  size(3) Largest target is 1
		 -> I2C1_Read(), 

    I2C.Write	PTR FTN(unsigned short ,PTR unsigned char ,unsigned int ,)_Bool  size(3) Largest target is 1
		 -> I2C1_Write(), 

    I2C.Deinitialize	PTR FTN()void  size(3) Largest target is 1
		 -> I2C1_Deinitialize(), 

    I2C.Initialize	PTR FTN()void  size(3) Largest target is 1
		 -> I2C1_Initialize(), 

    I2C	PTR const struct . size(2) Largest target is 30
		 -> i2c1_host_interface(CODE[30]), 

    INT2_SetInterruptHandler@InterruptHandler	PTR FTN()void  size(3) Largest target is 1
		 -> INT2_DefaultInterruptHandler(), 

    INT2_InterruptHandler	PTR FTN()void  size(3) Largest target is 1
		 -> INT2_DefaultInterruptHandler(), Absolute function(), 

    INT1_SetInterruptHandler@InterruptHandler	PTR FTN()void  size(3) Largest target is 1
		 -> INT1_DefaultInterruptHandler(), 

    INT1_InterruptHandler	PTR FTN()void  size(3) Largest target is 1
		 -> INT1_DefaultInterruptHandler(), Absolute function(), 

    INT0_SetInterruptHandler@InterruptHandler	PTR FTN()void  size(3) Largest target is 1
		 -> INT0_DefaultInterruptHandler(), 

    INT0_InterruptHandler	PTR FTN()void  size(3) Largest target is 1
		 -> INT0_DefaultInterruptHandler(), Absolute function(), 

    I2C1_Callback	PTR FTN()void  size(3) Largest target is 1
		 -> I2C1_DefaultCallback(), Absolute function(), 

    I2C1_CallbackRegister@callbackHandler	PTR FTN()void  size(3) Largest target is 1
		 -> I2C1_DefaultCallback(), 

    I2C1_Write@data	PTR unsigned char  size(2) Largest target is 2
		 -> main@data(COMRAM[2]), 

    i2c1_eventTable	const PTR FTN()enum E13004[9] size(3) Largest target is 1
		 -> I2C1_EVENT_RESET(), I2C1_EVENT_STOP(), I2C1_EVENT_ERROR(), I2C1_EVENT_NACK(), 
		 -> I2C1_EVENT_RX(), I2C1_EVENT_TX(), I2C1_EVENT_SEND_WR_ADDR(), I2C1_EVENT_SEND_RD_ADDR(), 
		 -> I2C1_EVENT_IDLE(), 

    S152$readPtr	PTR unsigned char  size(2) Largest target is 0
		 -> NULL(NULL[0]), 

    i2c1Status.readPtr	PTR unsigned char  size(2) Largest target is 0
		 -> NULL(NULL[0]), 

    S152$writePtr	PTR unsigned char  size(2) Largest target is 2
		 -> main@data(COMRAM[2]), NULL(NULL[0]), 

    i2c1Status.writePtr	PTR unsigned char  size(2) Largest target is 2
		 -> main@data(COMRAM[2]), NULL(NULL[0]), 

    S50$Tasks	PTR FTN()void  size(3) Largest target is 1
		 -> I2C1_Tasks(), 

    i2c1_host_interface.Tasks	PTR FTN()void  size(3) Largest target is 1
		 -> I2C1_Tasks(), 

    S50$CallbackRegister	PTR FTN(PTR FTN()void ,)void  size(3) Largest target is 1
		 -> I2C1_CallbackRegister(), 

    i2c1_host_interface.CallbackRegister	PTR FTN(PTR FTN()void ,)void  size(3) Largest target is 1
		 -> I2C1_CallbackRegister(), 

    S50$IsBusy	PTR FTN()_Bool  size(3) Largest target is 1
		 -> I2C1_IsBusy(), 

    i2c1_host_interface.IsBusy	PTR FTN()_Bool  size(3) Largest target is 1
		 -> I2C1_IsBusy(), 

    S50$ErrorGet	PTR FTN()enum E12995 size(3) Largest target is 1
		 -> I2C1_ErrorGet(), 

    i2c1_host_interface.ErrorGet	PTR FTN()enum E12995 size(3) Largest target is 1
		 -> I2C1_ErrorGet(), 

    S50$TransferSetup	PTR FTN(PTR struct .,unsigned long ,)_Bool  size(3) Largest target is 1
		 -> Absolute function(), 

    i2c1_host_interface.TransferSetup	PTR FTN(PTR struct .,unsigned long ,)_Bool  size(3) Largest target is 1
		 -> Absolute function(), 

    S50$WriteRead	PTR FTN(unsigned short ,PTR unsigned char ,unsigned int ,PTR unsigned char ,unsigned int ,)_Bool  size(3) Largest target is 1
		 -> I2C1_WriteRead(), 

    i2c1_host_interface.WriteRead	PTR FTN(unsigned short ,PTR unsigned char ,unsigned int ,PTR unsigned char ,unsigned int ,)_Bool  size(3) Largest target is 1
		 -> I2C1_WriteRead(), 

    S50$Read	PTR FTN(unsigned short ,PTR unsigned char ,unsigned int ,)_Bool  size(3) Largest target is 1
		 -> I2C1_Read(), 

    i2c1_host_interface.Read	PTR FTN(unsigned short ,PTR unsigned char ,unsigned int ,)_Bool  size(3) Largest target is 1
		 -> I2C1_Read(), 

    S50$Write	PTR FTN(unsigned short ,PTR unsigned char ,unsigned int ,)_Bool  size(3) Largest target is 1
		 -> I2C1_Write(), 

    i2c1_host_interface.Write	PTR FTN(unsigned short ,PTR unsigned char ,unsigned int ,)_Bool  size(3) Largest target is 1
		 -> I2C1_Write(), 

    S50$Deinitialize	PTR FTN()void  size(3) Largest target is 1
		 -> I2C1_Deinitialize(), 

    i2c1_host_interface.Deinitialize	PTR FTN()void  size(3) Largest target is 1
		 -> I2C1_Deinitialize(), 

    S50$Initialize	PTR FTN()void  size(3) Largest target is 1
		 -> I2C1_Initialize(), 

    i2c1_host_interface.Initialize	PTR FTN()void  size(3) Largest target is 1
		 -> I2C1_Initialize(), 


Critical Paths under _main in COMRAM

    _main->_I2C1_Write
    _INTERRUPT_Initialize->_INT0_SetInterruptHandler
    _INTERRUPT_Initialize->_INT1_SetInterruptHandler
    _INTERRUPT_Initialize->_INT2_SetInterruptHandler
    _I2C1_Initialize->_I2C1_CallbackRegister
    _I2C1_Write->_I2C1_IsBusy
    _I2C1_EventHandler->_I2C1_EVENT_TX
    _I2C1_ErrorEventHandler->_I2C1_EVENT_TX
    _I2C1_EVENT_TX->_I2C1_DataTransmit
    _I2C1_EVENT_SEND_WR_ADDR->_I2C1_DataTransmit

Critical Paths under _main in BANK0

    None.

Critical Paths under _main in BANK1

    None.

Critical Paths under _main in BANK2

    None.

Critical Paths under _main in BANK3

    None.

Critical Paths under _main in BANK4

    None.

Critical Paths under _main in BANK5

    None.

Critical Paths under _main in BANK6

    None.

Critical Paths under _main in BANK7

    None.

Critical Paths under _main in BANK8

    None.

Critical Paths under _main in BANK9

    None.

Critical Paths under _main in BANK10

    None.

Critical Paths under _main in BANK11

    None.

Critical Paths under _main in BANK12

    None.

Critical Paths under _main in BANK13

    None.

Critical Paths under _main in BANK14

    None.

Call Graph Tables:

 ---------------------------------------------------------------------------------
 (Depth) Function   	        Calls       Base Space   Used Autos Params    Refs
 ---------------------------------------------------------------------------------
 (0) _main                                                 4     4      0    1313
                                              8 COMRAM     4     4      0
                      _I2C1_ErrorGet *
                        _I2C1_IsBusy *
                         _I2C1_Tasks *
                         _I2C1_Write *
                  _SYSTEM_Initialize
 ---------------------------------------------------------------------------------
 (1) _SYSTEM_Initialize                                    0     0      0     490
                   _CLOCK_Initialize
                    _I2C1_Initialize
               _INTERRUPT_Initialize
             _PIN_MANAGER_Initialize
 ---------------------------------------------------------------------------------
 (2) _PIN_MANAGER_Initialize                               0     0      0       0
 ---------------------------------------------------------------------------------
 (2) _INTERRUPT_Initialize                                 0     0      0     294
           _INT0_SetInterruptHandler
           _INT1_SetInterruptHandler
           _INT2_SetInterruptHandler
 ---------------------------------------------------------------------------------
 (3) _INT2_SetInterruptHandler                             3     0      3      98
                                              0 COMRAM     3     0      3
 ---------------------------------------------------------------------------------
 (3) _INT1_SetInterruptHandler                             3     0      3      98
                                              0 COMRAM     3     0      3
 ---------------------------------------------------------------------------------
 (3) _INT0_SetInterruptHandler                             3     0      3      98
                                              0 COMRAM     3     0      3
 ---------------------------------------------------------------------------------
 (2) _I2C1_Initialize                                      0     0      0     196
              _I2C1_CallbackRegister
 ---------------------------------------------------------------------------------
 (3) _I2C1_CallbackRegister                                3     0      3     196
                                              0 COMRAM     3     0      3
 ---------------------------------------------------------------------------------
 (2) _CLOCK_Initialize                                     0     0      0       0
 ---------------------------------------------------------------------------------
 (1) _I2C1_Write                                           7     1      6     432
                                              1 COMRAM     7     1      6
                        _I2C1_IsBusy
                    _I2C1_WriteStart
 ---------------------------------------------------------------------------------
 (2) _I2C1_WriteStart                                      0     0      0       0
                     _I2C1_StartSend
 ---------------------------------------------------------------------------------
 (3) _I2C1_StartSend                                       0     0      0       0
 ---------------------------------------------------------------------------------
 (2) _I2C1_IsBusy                                          1     1      0      24
                                              0 COMRAM     1     1      0
 ---------------------------------------------------------------------------------
 (1) _I2C1_Tasks                                           0     0      0     210
             _I2C1_ErrorEventHandler
                  _I2C1_EventHandler
 ---------------------------------------------------------------------------------
 (2) _I2C1_EventHandler                                    0     0      0     105
                   _I2C1_EVENT_ERROR *
                    _I2C1_EVENT_IDLE *
                    _I2C1_EVENT_NACK *
                   _I2C1_EVENT_RESET *
                      _I2C1_EVENT_RX *
            _I2C1_EVENT_SEND_RD_ADDR *
            _I2C1_EVENT_SEND_WR_ADDR *
                    _I2C1_EVENT_STOP *
                      _I2C1_EVENT_TX *
                _I2C1_InterruptClear
                        _I2C1_IsAddr
                        _I2C1_IsData
                        _I2C1_IsNack
 ---------------------------------------------------------------------------------
 (3) _I2C1_IsNack                                          0     0      0       0
 ---------------------------------------------------------------------------------
 (3) _I2C1_IsData                                          0     0      0       0
 ---------------------------------------------------------------------------------
 (3) _I2C1_IsAddr                                          0     0      0       0
 ---------------------------------------------------------------------------------
 (2) _I2C1_ErrorEventHandler                               0     0      0     105
                   Absolute function *
               _I2C1_DefaultCallback *
                   _I2C1_EVENT_ERROR *
                    _I2C1_EVENT_IDLE *
                    _I2C1_EVENT_NACK *
                   _I2C1_EVENT_RESET *
                      _I2C1_EVENT_RX *
            _I2C1_EVENT_SEND_RD_ADDR *
            _I2C1_EVENT_SEND_WR_ADDR *
                    _I2C1_EVENT_STOP *
                      _I2C1_EVENT_TX *
           _I2C1_ErrorInterruptClear
 ---------------------------------------------------------------------------------
 (3) _I2C1_EVENT_TX                                        1     1      0      30
                                              1 COMRAM     1     1      0
                  _I2C1_DataTransmit
                    _I2C1_EVENT_STOP
                 _I2C1_RestartEnable
 ---------------------------------------------------------------------------------
 (4) _I2C1_RestartEnable                                   0     0      0       0
 ---------------------------------------------------------------------------------
 (3) _I2C1_EVENT_SEND_WR_ADDR                              0     0      0      15
                  _I2C1_DataTransmit
 ---------------------------------------------------------------------------------
 (3) _I2C1_EVENT_SEND_RD_ADDR                              0     0      0      15
                  _I2C1_DataTransmit
 ---------------------------------------------------------------------------------
 (4) _I2C1_DataTransmit                                    1     1      0      15
                                              0 COMRAM     1     1      0
 ---------------------------------------------------------------------------------
 (3) _I2C1_EVENT_RX                                        1     1      0      15
                                              0 COMRAM     1     1      0
                       _I2C1_AckSend
                   _I2C1_DataReceive
                   _I2C1_IsRxBufFull
                      _I2C1_NackSend
                 _I2C1_ReceiveEnable
                _I2C1_RestartDisable
 ---------------------------------------------------------------------------------
 (4) _I2C1_RestartDisable                                  0     0      0       0
 ---------------------------------------------------------------------------------
 (4) _I2C1_ReceiveEnable                                   0     0      0       0
 ---------------------------------------------------------------------------------
 (4) _I2C1_NackSend                                        0     0      0       0
 ---------------------------------------------------------------------------------
 (4) _I2C1_IsRxBufFull                                     0     0      0       0
 ---------------------------------------------------------------------------------
 (4) _I2C1_DataReceive                                     0     0      0       0
 ---------------------------------------------------------------------------------
 (4) _I2C1_AckSend                                         0     0      0       0
 ---------------------------------------------------------------------------------
 (3) _I2C1_EVENT_NACK                                      1     1      0      15
                                              0 COMRAM     1     1      0
                    _I2C1_EVENT_STOP
 ---------------------------------------------------------------------------------
 (4) _I2C1_EVENT_STOP                                      0     0      0       0
                         _I2C1_Close
                      _I2C1_StopSend
 ---------------------------------------------------------------------------------
 (5) _I2C1_StopSend                                        0     0      0       0
 ---------------------------------------------------------------------------------
 (5) _I2C1_Close                                           0     0      0       0
           _I2C1_ErrorInterruptClear
                _I2C1_InterruptClear
              _I2C1_StatusFlagsClear
 ---------------------------------------------------------------------------------
 (6) _I2C1_StatusFlagsClear                                0     0      0       0
 ---------------------------------------------------------------------------------
 (3) _I2C1_InterruptClear                                  0     0      0       0
 ---------------------------------------------------------------------------------
 (6) _I2C1_ErrorInterruptClear                             0     0      0       0
 ---------------------------------------------------------------------------------
 (3) _I2C1_EVENT_IDLE                                      0     0      0       0
 ---------------------------------------------------------------------------------
 (3) _I2C1_EVENT_ERROR                                     1     1      0      15
                                              0 COMRAM     1     1      0
                   _I2C1_EVENT_RESET
 ---------------------------------------------------------------------------------
 (3) _I2C1_EVENT_RESET                                     0     0      0       0
                      _I2C1_BusReset
 ---------------------------------------------------------------------------------
 (4) _I2C1_BusReset                                        0     0      0       0
 ---------------------------------------------------------------------------------
 (3) _I2C1_DefaultCallback                                 0     0      0       0
 ---------------------------------------------------------------------------------
 (3) Absolute function(Fake)                               0     0      0       0
 ---------------------------------------------------------------------------------
 (1) _I2C1_ErrorGet                                        1     1      0      15
                                              0 COMRAM     1     1      0
 ---------------------------------------------------------------------------------
 Estimated maximum stack depth 6
 ---------------------------------------------------------------------------------

 Call Graph Graphs:

 _main (ROOT)
   _I2C1_ErrorGet *
   _I2C1_IsBusy *
   _I2C1_Tasks *
     _I2C1_ErrorEventHandler
       Absolute function(Fake) *
       _I2C1_DefaultCallback *
       _I2C1_EVENT_ERROR *
         _I2C1_EVENT_RESET
           _I2C1_BusReset
       _I2C1_EVENT_IDLE *
       _I2C1_EVENT_NACK *
         _I2C1_EVENT_STOP
           _I2C1_Close
             _I2C1_ErrorInterruptClear
             _I2C1_InterruptClear
             _I2C1_StatusFlagsClear
           _I2C1_StopSend
       _I2C1_EVENT_RESET *
       _I2C1_EVENT_RX *
         _I2C1_AckSend
         _I2C1_DataReceive
         _I2C1_IsRxBufFull
         _I2C1_NackSend
         _I2C1_ReceiveEnable
         _I2C1_RestartDisable
       _I2C1_EVENT_SEND_RD_ADDR *
         _I2C1_DataTransmit
       _I2C1_EVENT_SEND_WR_ADDR *
         _I2C1_DataTransmit
       _I2C1_EVENT_STOP *
       _I2C1_EVENT_TX *
         _I2C1_DataTransmit
         _I2C1_EVENT_STOP
         _I2C1_RestartEnable
       _I2C1_ErrorInterruptClear *
     _I2C1_EventHandler
       _I2C1_EVENT_ERROR *
       _I2C1_EVENT_IDLE *
       _I2C1_EVENT_NACK *
       _I2C1_EVENT_RESET *
       _I2C1_EVENT_RX *
       _I2C1_EVENT_SEND_RD_ADDR *
       _I2C1_EVENT_SEND_WR_ADDR *
       _I2C1_EVENT_STOP *
       _I2C1_EVENT_TX *
       _I2C1_InterruptClear *
       _I2C1_IsAddr *
       _I2C1_IsData *
       _I2C1_IsNack *
   _I2C1_Write *
     _I2C1_IsBusy
     _I2C1_WriteStart
       _I2C1_StartSend
   _SYSTEM_Initialize *
     _CLOCK_Initialize
     _I2C1_Initialize
       _I2C1_CallbackRegister
     _INTERRUPT_Initialize
       _INT0_SetInterruptHandler
       _INT1_SetInterruptHandler
       _INT2_SetInterruptHandler
     _PIN_MANAGER_Initialize

 Address spaces:
Name               Size   Autos  Total    Cost      Usage
BIGRAM             E1E      0       0      35        0.0%
EEDATA             400      0       0       0        0.0%
BITBANK13          100      0       0      31        0.0%
BANK13             100      0       0      32        0.0%
BITBANK12          100      0       0      29        0.0%
BANK12             100      0       0      30        0.0%
BITBANK11          100      0       0      27        0.0%
BANK11             100      0       0      28        0.0%
BITBANK10          100      0       0      25        0.0%
BANK10             100      0       0      26        0.0%
BITBANK9           100      0       0      23        0.0%
BANK9              100      0       0      24        0.0%
BITBANK8           100      0       0      21        0.0%
BANK8              100      0       0      22        0.0%
BITBANK7           100      0       0      19        0.0%
BANK7              100      0       0      20        0.0%
BITBANK6           100      0       0      17        0.0%
BANK6              100      0       0      18        0.0%
BITBANK5           100      0       0      15        0.0%
BANK5              100      0       0      16        0.0%
BITBANK4           100      0       0      13        0.0%
BANK4              100      0       0      14        0.0%
BITBANK3           100      0       0      11        0.0%
BANK3              100      0       0      12        0.0%
BITBANK2           100      0       0       9        0.0%
BANK2              100      0       0      10        0.0%
BITBANK1           100      0       0       7        0.0%
BANK1              100      0       0       8        0.0%
BITBANK0            A0      0       0       4        0.0%
BANK0               A0      0       0       5        0.0%
BITCOMRAM           5F      0       0       0        0.0%
COMRAM              5F      C      28       1       42.1%
BITBANK14           1F      0       0      33        0.0%
BANK14              1F      0       0      34        0.0%
BITSFR_2             0      0       0     200        0.0%
SFR_2                0      0       0     200        0.0%
BITSFR_1             0      0       0     200        0.0%
SFR_1                0      0       0     200        0.0%
BITSFR               0      0       0     200        0.0%
SFR                  0      0       0     200        0.0%
STACK                0      0       0       2        0.0%
NULL                 0      0       0       0        0.0%
ABS                  0      0      28       6        0.0%
DATA                 0      0      28       3        0.0%
CODE                 0      0       0       0        0.0%


Microchip Technology PIC18 Macro Assembler V2.32 build 20210201212658 
Symbol Table                                                                                   Mon Jan 31 10:50:18 2022

                          I2C1_Write@data 001E                    ??_I2C1_DefaultCallback 001B  
                                      l17 15A8                                        u10 15F6  
                                      u11 15F0                                        u30 15E2  
                                      u31 15DC                                        u16 15F8  
                                      u40 15E4                                        u50 15BA  
                                      u51 15B4                                        u60 15CE  
                                      u61 15C8                                        u70 1398  
                                      u71 1394                                        u80 13C8  
                                      u56 15BC                                        u81 13C4  
                                      u90 12CA                                        u66 15D0  
                                      u91 12C6                           ??_I2C1_NackSend 001B  
                         ??_I2C1_BusReset 001B                                       l210 168E  
                                     l213 1684                                       l222 16D6  
                                     l150 153C                                       l231 16D2  
                                     l207 1324                                       l151 153E  
                                     l135 1438                                       l216 164C  
                                     l240 16C6                                       l128 1566  
                                     l312 147E                                       l225 169E  
                                     l146 1670                                       l234 16CA  
                                     l162 14BE                                       l322 1634  
                                     l171 14EA                                       l243 16DA  
                                     l219 1640                                       l155 1588  
                                     _I2C 0027                                       l228 16C2  
                                     l180 1384                                       l252 15BC  
                                     l261 15F8                                       l237 16CE  
                                     l270 16B0                                       l246 16AA  
                                     l183 16DE                                       l255 15D0  
                                     l335 1626                                       l264 16B6  
                                     l192 1658                                       l168 167A  
                                     l249 16A4                                       l177 12B0  
                                     l281 160A                                       l186 1696  
                                     l258 15E4                                       l267 16BC  
                                     l348 1618                                       l189 1664  
                                     l199 13E0                                       l456 120E  
                                     u100 12DC                                       u101 12D8  
                                     u110 1306                                       u111 1302  
                                     u220 1490                                       u221 148C  
                                     u230 14A4                                       u231 14A0  
                                     u208 1294                                       u160 1228  
                                     u240 14B2                                       u209 12AE  
                                     u161 1224                                       u241 14AE  
                                     u170 123C                                       u171 1238  
                                     u148 134E                                       u180 125C  
                                     u149 1368                                       u181 1258  
                                     u158 1370                                       u190 1270  
                                     u159 1384                                       u191 126C  
                                     u520 0FAC                                       u521 0FA8  
                                     u450 157C                                       u610 110A  
                                     u451 1578                                       u611 1106  
                                     u460 152A                                       u461 1526  
                                     u470 1538                                       u550 1018  
                                     u518 0F82                                       u471 1534  
                                     u551 1014                                       u519 0F9C  
                                     u480 13FA                                       u608 10E0  
                                     u481 13F6                                       u609 10FA  
                                     u538 0FC2                                       u539 0FDC  
                                     u628 111C                                       u580 109E  
                                     u548 0FEE                                       u629 1136  
                                     u581 109A                                       u549 1008  
                                     u637 0F46                                       u647 1146  
                                     u568 102A                                       u569 1044  
                                     u578 1074                                       u579 108E  
                         ??_I2C1_ErrorGet 001B                                       u598 10B4  
                                     u599 10CE                ??_INT0_SetInterruptHandler 001E  
               __end_of_I2C1_DataTransmit 16A0                                       tosl 000FFD  
                                     wreg 000FE8                  _I2C1_ErrorInterruptClear 16B8  
                                    l1201 16D4                                      l1211 16D0  
                                    l1205 16A6                                      l1301 131E  
                                    l1213 1636                                      l1207 16CC  
                                    l1303 1322                                      l1311 168C  
                                    l1215 163A                                      l1231 15AA  
                                    l1209 16A0                                      l1241 1694  
                                    l1217 163E                                      l1225 16C4  
                                    l1401 11C2                                      l1163 16B2  
                                    l1171 14CA                                      l1251 164E  
                                    l1307 1686                                      l1315 167C  
                                    l1227 15D2                                      l1235 15BE  
                                    l1403 11C4                                      l1165 16B8  
                                    l1173 14D2                                      l1181 16D8  
                                    l1261 1398                                      l1245 165A  
                                    l1253 1656                                      l1309 1686  
                                    l1317 167C                                      l1183 16BE  
                                    l1167 16AC                                      l1175 14DE  
                                    l1271 13CC                                      l1263 139E  
                                    l1239 1690                                      l1247 1662  
                                    l1319 1682                                      l1191 1646  
                                    l1351 132E                                      l1441 166A  
                                    l1177 14E2                                      l1169 14C0  
                                    l1185 169A                                      l1273 13D0  
                                    l1265 13B0                                      l1257 1386  
                                    l1281 12B2                                      l1193 164A  
                                    l1353 1332                                      l1361 1228  
                                    l1345 1672                                      l1329 158A  
                                    l1601 143A                                      l1179 14E6  
                                    l1187 16C8                                      l1275 13D8  
                                    l1267 13B8                                      l1259 1386  
                                    l1291 12EE                                      l1283 12B6  
                                    l1355 136A                                      l1371 1278  
                                    l1363 123C                                      l1451 14A4  
                                    l1347 1676                                      l1611 146C  
                                    l1603 1442                                      l1197 15E6  
                                    l1269 13C8                                      l1277 13DE  
                                    l1293 12F4                                      l1285 12CA  
                                    l1189 1642                                      l1349 1326  
                                    l1365 1248                                      l1357 1210  
                                    l1453 14B2                                      l1445 1480  
                                    l1621 140A                                      l1613 13E2  
                                    l1605 1452                                      l1381 1174  
                                    l1373 115A                                      l1701 0FDC  
                                    l1439 1666                                      l1295 1306  
                                    l1287 12DC                                      l1367 125C  
                                    l1359 1214                                      l1455 14BA  
                                    l1447 1490                                      l1623 1412  
                                    l1631 1436                                      l1615 13E6  
                                    l1607 1456                                      l1391 11B4  
                                    l1383 117A                                      l1375 116E  
                                    l1711 104A                                      l1703 1018  
                                    l1297 130E                                      l1289 12EA  
                                    l1369 1270                                      l1449 1494  
                                    l1625 141A                                      l1617 13FA  
                                    l1609 1468                                      l1393 11B6  
                                    l1385 1182                                      l1377 1170  
                                    l1299 1316                                      l1627 142E  
                                    l1619 13FE                                      l1395 11B8  
                                    l1387 1184                                      l1379 1172  
                                    l1635 15FA                                      l1723 1136  
                                    l1715 10A2                                      l1707 1044  
                                    l1629 1432                                      l1581 1628  
                                    l1397 11BE                                      l1389 11B2  
                                    l1637 1602                                      l1717 10CE  
                                    l1725 113C                                      l1709 1048  
                                    l1591 1564                                      l1583 161A  
                                    l1399 11C0                                      l1639 1606  
                                    l1719 110A                                      l1593 1516  
                                    l1577 1568                                      l1585 160C  
                                    l1595 152A                                      l1579 157C  
                                    l1587 1540                                      l1691 0F50  
                                    l1597 1538                                      l1589 1554  
                                    l1693 0F54                                      l1695 0F58  
                                    l1687 0F3C                                      l1689 0F40  
                                    l1699 0FB0                         _I2C1_Deinitialize 000000  
                                    _LATA 000F82                                      _LATB 000F83  
                                    _LATC 000F84                                      _LATD 000F85  
                                    _LATE 000F86                                      _WPUA 000F0B  
                                    _WPUB 000F13                                      _WPUC 000F1B  
                                    _WPUD 000F20                                      _WPUE 000F28  
                         ??_I2C1_StopSend 001B                         I2C1_Write@address 001C  
                                    _main 0F3C                                      fsr2h 000FDA  
                                    indf2 000FDF                                      fsr2l 000FD9  
       __size_of_INT2_SetInterruptHandler 000E                 ?_INT2_SetInterruptHandler 001B  
                                    prodh 000FF4                                      prodl 000FF3  
                                    start 0000                              ___param_bank 000000  
                         _I2C1_EVENT_IDLE 1690                           _I2C1_EVENT_NACK 1686  
                              _i2c1Status 0001                           _I2C1_EVENT_STOP 1642  
                __size_of_I2C1_WriteStart 000A                                     ?_main 001B  
                                   _IOCAF 000F05                                     _IOCBF 000F0D  
                                   _IOCCF 000F15                                     _IOCAN 000F06  
                                   _IOCEF 000F22                                     _IOCAP 000F07  
                                   _IOCBN 000F0E                                     _IOCBP 000F0F  
                                   _IOCCN 000F16                                     _IOCCP 000F17  
                                   _IOCEN 000F23                                     _IOCEP 000F24  
                                   _OSCEN 000ED7                                     _TRISA 000F87  
                                   _TRISB 000F88                                     _TRISC 000F89  
                                   _TRISD 000F8A                                     _TRISE 000F8B  
                        ??_I2C1_StartSend 001B                  ?_I2C1_EVENT_SEND_RD_ADDR 001B  
                       ??_I2C1_Initialize 001E                   ??_I2C1_CallbackRegister 001E  
                       ?_I2C1_IsRxBufFull 001B                  ?_I2C1_EVENT_SEND_WR_ADDR 001B  
                _INT1_SetInterruptHandler 161A                                     pclath 000FFA  
                                   tablat 000FF5                     I2C1_DataTransmit@data 001B  
                      ??_I2C1_IsRxBufFull 001B                                     status 000FD8  
                            ??_I2C1_Close 001B                              ??_I2C1_Tasks 001D  
                            ??_I2C1_Write 0022                           __initialization 14EC  
                ??_I2C1_ErrorEventHandler 001D                              __end_of_main 115A  
                        _I2C1_EVENT_ERROR 167C                          _I2C1_EVENT_RESET 1636  
                                  ??_main 0023                             __activetblptr 000003  
              I2C1_ErrorGet@retErrorState 001B                __size_of_I2C1_DataTransmit 0008  
    I2C1_CallbackRegister@callbackHandler 001B                        __end_of_I2C1_Close 14EC  
                      __end_of_I2C1_Tasks 14C0                        __end_of_I2C1_Write 143A  
                                  _ANSELA 000F0C                                    _ANSELB 000F14  
                                  _ANSELC 000F1C                                    _ANSELD 000F21  
                                  _ANSELE 000F29                                    _RB1PPS 000EEB  
                                  _RB2PPS 000EEC                                    _ODCONA 000F0A  
                                  _ODCONB 000F12                                    _ODCONC 000F1A  
                                  _ODCOND 000F1F                                    _ODCONE 000F27  
                                  _INLVLA 000F08                                    _INLVLB 000F10  
                                  _INLVLC 000F18                                    _INLVLD 000F1D  
                                  _INLVLE 000F25                                    _OSCFRQ 000ED9  
                 __end_of_I2C1_EVENT_IDLE 1698                   __end_of_I2C1_EVENT_NACK 1690  
                 __end_of_I2C1_EVENT_STOP 164E              __size_of_I2C1_RestartDisable 0004  
             __end_of_I2C1_InterruptClear 16B8                        _I2C1_RestartEnable 16C8  
                                  clear_0 150A           __end_of_I2C1_EVENT_SEND_RD_ADDR 1666  
                                  isa$std 000001                   fp__I2C1_DefaultCallback 0000  
                       ?_CLOCK_Initialize 001B               __size_of_I2C1_ReceiveEnable 0004  
            _INT2_DefaultInterruptHandler 000000                              __pdataCOMRAM 0027  
                      ??_CLOCK_Initialize 001B           __end_of_I2C1_EVENT_SEND_WR_ADDR 165A  
                     ?_I2C1_RestartEnable 001B                         ??_I2C1_WriteStart 001B  
                            __mediumconst 0000                                    tblptrh 000FF7  
                                  tblptrl 000FF6                                    tblptru 000FF8  
INT2_SetInterruptHandler@InterruptHandler 001B  INT1_SetInterruptHandler@InterruptHandler 001B  
INT0_SetInterruptHandler@InterruptHandler 001B             __size_of_INTERRUPT_Initialize 0046  
                       _SYSTEM_Initialize 15FA                                __accesstop 0060  
                 __end_of__initialization 1510                             ??_I2C1_IsAddr 001B  
                           ??_I2C1_IsData 001B                             ??_I2C1_IsNack 001B  
                           ??_I2C1_IsBusy 001B                        ?_SYSTEM_Initialize 001B  
                           ___rparam_used 000001                      ??_I2C1_RestartEnable 001B  
                          __pcstackCOMRAM 001B           __size_of_I2C1_ErrorEventHandler 0060  
                     ??_SYSTEM_Initialize 001E                 __size_of_I2C1_DataReceive 0004  
              ??_I2C1_ErrorInterruptClear 001B                           _I2C1_IsBusy$793 001B  
                     I2C1_Write@retStatus 0022          __end_of_INT2_SetInterruptHandler 161A  
                   __end_of_I2C1_EVENT_RX 1326                     __end_of_I2C1_EVENT_TX 13E2  
                       _I2C1_EventHandler 1210                 __end_of_SYSTEM_Initialize 160C  
                      ?_I2C1_EventHandler 001B                     _INT0_InterruptHandler 0015  
                   _I2C1_StatusFlagsClear 16AC                          ?_I2C1_EVENT_IDLE 001B  
                        ?_I2C1_EVENT_NACK 001B                          ?_I2C1_EVENT_STOP 001B  
                     ??_I2C1_EventHandler 001D                       __end_of_I2C1_IsAddr 15E6  
                     __end_of_I2C1_IsData 15D2                       __end_of_I2C1_IsNack 15BE  
                     __end_of_I2C1_IsBusy 1540                             fp__I2C1_Tasks 0000  
                         _I2C1_Initialize 1540                             fp__I2C1_Write 0000  
           __size_of_I2C1_DefaultCallback 0002                     __end_of_I2C1_NackSend 16A6  
                   __end_of_I2C1_BusReset 16C4                       fp__I2C1_EVENT_ERROR 0000  
                     fp__I2C1_EVENT_RESET 0000                ??_INT1_SetInterruptHandler 001E  
                   __end_of_I2C1_ErrorGet 1672                                 _I2C1_Read 000000  
               __end_of_I2C1_EventHandler 12B2                                   _OSCCON1 000ED3  
                                 _OSCCON2 000ED4                                   _OSCCON3 000ED5  
                                 _OSCSTAT 000ED6                    _I2C1_ErrorEventHandler 1326  
                                 _OSCTUNE 000ED8                                   _SSP1ADD 000F92  
                                 _SLRCONA 000F09                                   _SLRCONB 000F11  
                                 _SLRCONC 000F19                                   _SLRCOND 000F1E  
                                 _SLRCONE 000F26                                   _SSP1BUF 000F91  
                __end_of_I2C1_EVENT_ERROR 1686            __size_of_I2C1_CallbackRegister 0022  
                __end_of_I2C1_EVENT_RESET 1642             __end_of_I2C1_CallbackRegister 158A  
       __size_of_INT0_SetInterruptHandler 000E                 ?_INT0_SetInterruptHandler 001B  
        __size_of_I2C1_EVENT_SEND_RD_ADDR 000C                     __end_of_I2C1_StopSend 16DC  
                                 __Hparam 0000                                   __Lparam 0000  
                     _i2c1_host_interface 0F1C          __size_of_I2C1_EVENT_SEND_WR_ADDR 000C  
               __size_of_I2C1_IsRxBufFull 0014                              __psmallconst 0F00  
                                 __pcinit 14EC                                   __ramtop 0F00  
                                 __ptext0 0F3C                                   __ptext1 15FA  
                                 __ptext2 115A                                   __ptext3 143A  
                                 __ptext4 160C                                   __ptext5 161A  
                                 __ptext6 1628                                   __ptext7 1540  
                                 __ptext8 1568                                   __ptext9 158A  
                    I2C1_Write@dataLength 0020                       _I2C1_RestartDisable 16CC  
                ??_PIN_MANAGER_Initialize 001B                             ?_I2C1_AckSend 001B  
                         _i2c1_eventTable 0F01                __size_of_SYSTEM_Initialize 0012  
                    end_of_initialization 1510                  _INT2_SetInterruptHandler 160C  
                  ?_I2C1_StatusFlagsClear 001B                               _I2C1_IsAddr 15D2  
                             _I2C1_IsData 15BE                               _I2C1_IsNack 15AA  
                             _I2C1_IsBusy 1516                      ?_I2C1_RestartDisable 001B  
                 __end_of_I2C1_Initialize 1568                                   postinc0 000FEE  
                        _I2C1_DataReceive 16D4                           _I2C1_WriteStart 1672  
                   _INT1_InterruptHandler 0012                            ??_I2C1_AckSend 001B  
              __size_of_I2C1_EventHandler 00A2                 __size_of_CLOCK_Initialize 0020  
                 __size_of_I2C1_StartSend 0004                     ??_I2C1_RestartDisable 001B  
                fp__I2C1_CallbackRegister 0000              __end_of_INTERRUPT_Initialize 1480  
            _INT0_DefaultInterruptHandler 000000                             __pidataCOMRAM 16DC  
              __end_of_I2C1_ReceiveEnable 16D4                   __end_of_i2c1_eventTable 0F1C  
            __size_of_I2C1_InterruptClear 0006                       start_initialization 14EC  
         __size_of_PIN_MANAGER_Initialize 00B6                   _I2C1_EVENT_SEND_RD_ADDR 165A  
              fp__I2C1_EVENT_SEND_RD_ADDR 0000                   __end_of_I2C1_WriteStart 167C  
                        ?_I2C1_Initialize 001B               __size_of_I2C1_RestartEnable 0004  
                 _I2C1_EVENT_SEND_WR_ADDR 164E                fp__I2C1_EVENT_SEND_WR_ADDR 0000  
                        _I2C1_IsRxBufFull 15E6                   ?_I2C1_ErrorEventHandler 001B  
                             __pbssCOMRAM 0001          __end_of_INT0_SetInterruptHandler 1636  
       __size_of_I2C1_ErrorInterruptClear 0006                 ?_I2C1_ErrorInterruptClear 001B  
            __end_of_I2C1_DefaultCallback 16E0                         ?_I2C1_EVENT_ERROR 001B  
                       ?_I2C1_EVENT_RESET 001B                     _INT2_InterruptHandler 000F  
                      ??_I2C1_EVENT_ERROR 001B                        ??_I2C1_EVENT_RESET 001B  
                    __end_of_I2C1_AckSend 16AC                    _PIN_MANAGER_Initialize 115A  
                  __size_of_I2C1_EVENT_RX 0074                    __size_of_I2C1_EVENT_TX 005C  
                        fp__I2C1_EVENT_RX 0000                          fp__I2C1_EVENT_TX 0000  
                __size_of_I2C1_EVENT_IDLE 0008                  __size_of_I2C1_EVENT_NACK 000A  
                      fp__I2C1_EVENT_IDLE 0000                        fp__I2C1_EVENT_NACK 0000  
                __size_of_I2C1_EVENT_STOP 000C                        fp__I2C1_EVENT_STOP 0000  
                          fp__I2C1_IsBusy 0000            __end_of_I2C1_ErrorEventHandler 1386  
                             __smallconst 0F00                ??_INT2_SetInterruptHandler 001E  
           I2C1_EVENT_ERROR@retEventState 001B                   ??_I2C1_StatusFlagsClear 001B  
                __end_of_I2C1_DataReceive 16D8                 ??_I2C1_EVENT_SEND_RD_ADDR 001B  
                    _INTERRUPT_Initialize 143A                          _CLOCK_Initialize 158A  
                          _I2C1_StartSend 16C4                              ?_I2C1_IsAddr 001B  
                            ?_I2C1_IsData 001B                              ?_I2C1_IsNack 001B  
               ??_I2C1_EVENT_SEND_WR_ADDR 001C                              ?_I2C1_IsBusy 001B  
       __size_of_INT1_SetInterruptHandler 000E                     _I2C1_CallbackRegister 1568  
               ?_INT1_SetInterruptHandler 001B                    __size_of_I2C1_NackSend 0006  
                        ?_I2C1_WriteStart 001B                    __size_of_I2C1_BusReset 0006  
                              _I2C1_Close 14C0                                _I2C1_Tasks 1480  
                                _PIR0bits 000EC5                                  _PIR3bits 000EC8  
                              _I2C1_Write 13E2                            _I2C1_WriteRead 000000  
                  __size_of_I2C1_ErrorGet 000C                          fp__I2C1_ErrorGet 0000  
                                _SSP1CON1 000F95                                  _SSP1CON2 000F96  
                                _SSP1CON3 000F97                                  _SSP1STAT 000F94  
                  __size_of_I2C1_StopSend 0004              I2C1_EVENT_NACK@retEventState 001B  
                           _I2C1_EVENT_RX 12B2                             _I2C1_EVENT_TX 1386  
                   ?_INTERRUPT_Initialize 001B                    __end_of_I2C1_StartSend 16C8  
                _INT0_SetInterruptHandler 1628                       _I2C1_InterruptClear 16B2  
                                __Hrparam 0000                                  __Lrparam 0000  
                           _I2C1_Callback 0018                      _I2C1_DefaultCallback 16DE  
                    ?_I2C1_InterruptClear 001B               __end_of_i2c1_host_interface 0F3A  
                           _I2C1_NackSend 16A0                             _I2C1_BusReset 16BE  
                       ??_I2C1_EVENT_IDLE 001B                         ??_I2C1_EVENT_NACK 001B  
                       ??_I2C1_EVENT_STOP 001B                            ?_I2C1_EVENT_RX 001B  
                          ?_I2C1_EVENT_TX 001B                             _I2C1_ErrorGet 1666  
                                __ptext10 13E2                                  __ptext11 1672  
                                __ptext20 1636                                  __ptext12 16C4  
                                __ptext21 1642                                  __ptext13 1516  
                                __ptext30 1698                                  __ptext22 167C  
                                __ptext14 1480                                  __ptext31 16CC  
                                __ptext23 1686                                  __ptext15 1210  
                                __ptext40 16B2                                  __ptext32 16D0  
                                __ptext24 12B2                                  __ptext16 15AA  
                                __ptext41 16B8                                  __ptext33 16A0  
                                __ptext25 164E                                  __ptext17 15BE  
                                __ptext42 16BE                                  __ptext34 15E6  
                                __ptext26 165A                                  __ptext18 15D2  
                                __ptext43 16DE                                  __ptext35 16D4  
                                __ptext27 1690                                  __ptext19 1326  
                                __ptext44 1666                                  __ptext36 16A6  
                                __ptext28 1386                                  __ptext45 0000  
                                __ptext37 16D8                                  __ptext29 16C8  
                                __ptext38 14C0                                  __ptext39 16AC  
                __end_of_I2C1_IsRxBufFull 15FA                              _SSP1CON1bits 000F95  
                            _SSP1CON2bits 000F96               __end_of_I2C1_RestartDisable 16D0  
                      _I2C1_ReceiveEnable 16D0                           ?_I2C1_StartSend 001B  
                  ?_I2C1_CallbackRegister 001B                     __size_of_I2C1_AckSend 0006  
                           __size_of_main 021E                       ?_I2C1_ReceiveEnable 001B  
                             ?_I2C1_Close 001B                             _I2C1_StopSend 16D8  
                             ?_I2C1_Tasks 001B                               ?_I2C1_Write 001C  
                                isa$xinst 000000                     ?_I2C1_DefaultCallback 001B  
                                main@data 0025                              _SSP1STATbits 000F94  
                   ??_I2C1_InterruptClear 001B          __end_of_I2C1_ErrorInterruptClear 16BE  
            _INT1_DefaultInterruptHandler 000000                            ?_I2C1_NackSend 001B  
                          ?_I2C1_BusReset 001B                      ??_I2C1_ReceiveEnable 001B  
                              _INTCONbits 000FF2                            ?_I2C1_ErrorGet 001B  
                            _I2C1_AckSend 16A6                    ??_INTERRUPT_Initialize 001E  
              I2C1_EVENT_RX@retEventState 001B                   ?_PIN_MANAGER_Initialize 001B  
              __end_of_I2C1_RestartEnable 16CC                            ?_I2C1_StopSend 001B  
                    __size_of_I2C1_IsAddr 0014                      __size_of_I2C1_IsData 0014  
                    __size_of_I2C1_IsNack 0014                      __size_of_I2C1_IsBusy 002A  
               __size_of_I2C1_EVENT_ERROR 000A                 __size_of_I2C1_EVENT_RESET 000C  
                __size_of_I2C1_Initialize 0028                        fp__I2C1_Initialize 0000  
                __end_of_CLOCK_Initialize 15AA                           ??_I2C1_EVENT_RX 001B  
                         ??_I2C1_EVENT_TX 001C                                _SSP1DATPPS 000EB3  
                              _SSP1CLKPPS 000EB2          __end_of_INT1_SetInterruptHandler 1628  
                     __size_of_I2C1_Close 002C                         _I2C1_DataTransmit 1698  
                     __size_of_I2C1_Tasks 0040                       __size_of_I2C1_Write 0058  
                      ?_I2C1_DataTransmit 001B                         ?_I2C1_DataReceive 001B  
          __size_of_I2C1_StatusFlagsClear 0006            __end_of_PIN_MANAGER_Initialize 1210  
           __end_of_I2C1_StatusFlagsClear 16B2                        ??_I2C1_DataReceive 001B  
              I2C1_EVENT_TX@retEventState 001C                       ??_I2C1_DataTransmit 001B  
